(lp0
(dp1
S'Apoptosis'
p2
(lp3
F0.0
aF0.0
aF0.0
aF0.0
aF0.0
aF0.0
aF0.0
aF0.0
aF0.0060000000000000001
aF0.024
aF0.034000000000000002
aF0.048000000000000001
aF0.066000000000000003
aF0.071999999999999995
aF0.084000000000000005
aF0.108
aF0.13800000000000001
aF0.14999999999999999
aF0.16800000000000001
aF0.184
aF0.19800000000000001
aF0.22600000000000001
aF0.24399999999999999
aF0.25600000000000001
aF0.26800000000000002
aF0.28799999999999998
aF0.29999999999999999
aF0.308
aF0.316
aF0.33200000000000002
aF0.34799999999999998
aF0.35599999999999998
aF0.378
aF0.39200000000000002
aF0.40400000000000003
aF0.41599999999999998
aF0.436
aF0.45000000000000001
aF0.46200000000000002
aF0.46800000000000003
aF0.47999999999999998
aF0.49399999999999999
aF0.50600000000000001
aF0.51800000000000002
aF0.53200000000000003
aF0.53800000000000003
aF0.54200000000000004
aF0.56200000000000006
aF0.56999999999999995
aF0.57799999999999996
aF0.58599999999999997
aF0.59399999999999997
aF0.59999999999999998
aF0.60799999999999998
aF0.61399999999999999
aF0.624
aF0.628
aF0.63800000000000001
aF0.64400000000000002
aF0.66000000000000003
aF0.67000000000000004
aF0.68200000000000005
aF0.68600000000000005
aF0.69799999999999995
aF0.70399999999999996
aF0.70599999999999996
aF0.70999999999999996
aF0.71399999999999997
aF0.72199999999999998
aF0.72399999999999998
aF0.72799999999999998
aF0.73199999999999998
aF0.74199999999999999
aF0.75800000000000001
aF0.76800000000000002
aF0.77200000000000002
aF0.77800000000000002
aF0.78200000000000003
aF0.79200000000000004
aF0.80200000000000005
aF0.81000000000000005
aF0.81200000000000006
aF0.81599999999999995
aF0.82599999999999996
aF0.82999999999999996
aF0.83199999999999996
aF0.83399999999999996
aF0.83999999999999997
aF0.84999999999999998
aF0.85399999999999998
aF0.85999999999999999
aF0.85999999999999999
aF0.85999999999999999
aF0.86399999999999999
aF0.86799999999999999
aF0.876
aF0.88
aF0.88200000000000001
aF0.88600000000000001
aF0.89000000000000001
aF0.89600000000000002
asS'STAT3'
p4
(lp5
F0.0
aF0.0
aF0.0
aF0.002
aF0.042000000000000003
aF0.089999999999999997
aF0.104
aF0.114
aF0.122
aF0.108
aF0.091999999999999998
aF0.106
aF0.11799999999999999
aF0.114
aF0.128
aF0.13200000000000001
aF0.11
aF0.13400000000000001
aF0.108
aF0.11600000000000001
aF0.10000000000000001
aF0.082000000000000003
aF0.071999999999999995
aF0.073999999999999996
aF0.080000000000000002
aF0.10199999999999999
aF0.091999999999999998
aF0.084000000000000005
aF0.078
aF0.080000000000000002
aF0.080000000000000002
aF0.087999999999999995
aF0.082000000000000003
aF0.104
aF0.087999999999999995
aF0.062
aF0.066000000000000003
aF0.070000000000000007
aF0.080000000000000002
aF0.066000000000000003
aF0.070000000000000007
aF0.078
aF0.064000000000000001
aF0.068000000000000005
aF0.059999999999999998
aF0.070000000000000007
aF0.048000000000000001
aF0.058000000000000003
aF0.056000000000000001
aF0.048000000000000001
aF0.048000000000000001
aF0.051999999999999998
aF0.058000000000000003
aF0.058000000000000003
aF0.058000000000000003
aF0.059999999999999998
aF0.050000000000000003
aF0.035999999999999997
aF0.040000000000000001
aF0.045999999999999999
aF0.048000000000000001
aF0.028000000000000001
aF0.037999999999999999
aF0.043999999999999997
aF0.040000000000000001
aF0.037999999999999999
aF0.034000000000000002
aF0.035999999999999997
aF0.040000000000000001
aF0.042000000000000003
aF0.045999999999999999
aF0.037999999999999999
aF0.042000000000000003
aF0.040000000000000001
aF0.037999999999999999
aF0.029999999999999999
aF0.040000000000000001
aF0.028000000000000001
aF0.028000000000000001
aF0.024
aF0.017999999999999999
aF0.032000000000000001
aF0.042000000000000003
aF0.032000000000000001
aF0.02
aF0.021999999999999999
aF0.028000000000000001
aF0.029999999999999999
aF0.025999999999999999
aF0.02
aF0.017999999999999999
aF0.021999999999999999
aF0.034000000000000002
aF0.024
aF0.021999999999999999
aF0.024
aF0.029999999999999999
aF0.035999999999999997
aF0.029999999999999999
aF0.021999999999999999
aF0.014
asS'Ras'
p6
(lp7
F0.0
aF0.040000000000000001
aF0.224
aF0.23599999999999999
aF0.184
aF0.246
aF0.22800000000000001
aF0.20599999999999999
aF0.222
aF0.216
aF0.22
aF0.218
aF0.20999999999999999
aF0.23000000000000001
aF0.23400000000000001
aF0.218
aF0.192
aF0.188
aF0.192
aF0.16200000000000001
aF0.158
aF0.16600000000000001
aF0.16400000000000001
aF0.17999999999999999
aF0.16800000000000001
aF0.158
aF0.122
aF0.17000000000000001
aF0.17399999999999999
aF0.14199999999999999
aF0.184
aF0.17799999999999999
aF0.14799999999999999
aF0.14799999999999999
aF0.13
aF0.13400000000000001
aF0.11600000000000001
aF0.14000000000000001
aF0.11799999999999999
aF0.13800000000000001
aF0.11799999999999999
aF0.12
aF0.106
aF0.11
aF0.106
aF0.094
aF0.084000000000000005
aF0.106
aF0.106
aF0.12
aF0.10199999999999999
aF0.10000000000000001
aF0.085999999999999993
aF0.087999999999999995
aF0.091999999999999998
aF0.085999999999999993
aF0.073999999999999996
aF0.070000000000000007
aF0.059999999999999998
aF0.073999999999999996
aF0.071999999999999995
aF0.073999999999999996
aF0.073999999999999996
aF0.068000000000000005
aF0.068000000000000005
aF0.066000000000000003
aF0.062
aF0.066000000000000003
aF0.059999999999999998
aF0.064000000000000001
aF0.058000000000000003
aF0.068000000000000005
aF0.058000000000000003
aF0.064000000000000001
aF0.064000000000000001
aF0.048000000000000001
aF0.056000000000000001
aF0.051999999999999998
aF0.056000000000000001
aF0.045999999999999999
aF0.051999999999999998
aF0.048000000000000001
aF0.062
aF0.043999999999999997
aF0.040000000000000001
aF0.037999999999999999
aF0.035999999999999997
aF0.024
aF0.034000000000000002
aF0.043999999999999997
aF0.040000000000000001
aF0.029999999999999999
aF0.042000000000000003
aF0.037999999999999999
aF0.034000000000000002
aF0.034000000000000002
aF0.032000000000000001
aF0.025999999999999999
aF0.029999999999999999
aF0.021999999999999999
aF0.017999999999999999
asS'FasL'
p8
(lp9
F0.0
aF0.0040000000000000001
aF0.053999999999999999
aF0.218
aF0.29599999999999999
aF0.27400000000000002
aF0.30599999999999999
aF0.33800000000000002
aF0.35399999999999998
aF0.35199999999999998
aF0.36399999999999999
aF0.33600000000000002
aF0.35799999999999998
aF0.32800000000000001
aF0.38400000000000001
aF0.36199999999999999
aF0.308
aF0.30399999999999999
aF0.29799999999999999
aF0.29199999999999998
aF0.312
aF0.25600000000000001
aF0.25600000000000001
aF0.25
aF0.26200000000000001
aF0.27600000000000002
aF0.26400000000000001
aF0.26800000000000002
aF0.246
aF0.25600000000000001
aF0.27200000000000002
aF0.26400000000000001
aF0.27600000000000002
aF0.24199999999999999
aF0.224
aF0.22800000000000001
aF0.224
aF0.216
aF0.192
aF0.20200000000000001
aF0.224
aF0.192
aF0.188
aF0.17599999999999999
aF0.16
aF0.16400000000000001
aF0.16600000000000001
aF0.16
aF0.16600000000000001
aF0.16800000000000001
aF0.16200000000000001
aF0.158
aF0.16800000000000001
aF0.17000000000000001
aF0.13800000000000001
aF0.152
aF0.13400000000000001
aF0.114
aF0.12
aF0.11600000000000001
aF0.114
aF0.11799999999999999
aF0.108
aF0.108
aF0.11600000000000001
aF0.11799999999999999
aF0.094
aF0.098000000000000004
aF0.104
aF0.11
aF0.112
aF0.112
aF0.11
aF0.106
aF0.085999999999999993
aF0.096000000000000002
aF0.096000000000000002
aF0.087999999999999995
aF0.087999999999999995
aF0.089999999999999997
aF0.087999999999999995
aF0.073999999999999996
aF0.078
aF0.085999999999999993
aF0.075999999999999998
aF0.075999999999999998
aF0.068000000000000005
aF0.062
aF0.059999999999999998
aF0.053999999999999999
aF0.068000000000000005
aF0.066000000000000003
aF0.053999999999999999
aF0.066000000000000003
aF0.062
aF0.070000000000000007
aF0.056000000000000001
aF0.053999999999999999
aF0.048000000000000001
aF0.058000000000000003
aF0.050000000000000003
asa(dp10
g2
(lp11
F0.0
aF0.0
aF0.0
aF0.0
aF0.0
aF0.0
aF0.0
aF0.0
aF0.0
aF0.0
aF0.0
aF0.0
aF0.0
aF0.0
aF0.0
aF0.0
aF0.0
aF0.0
aF0.0
aF0.0
aF0.0
aF0.0
aF0.0
aF0.0
aF0.0
aF0.0
aF0.0
aF0.0
aF0.0
aF0.0
aF0.0
aF0.0
aF0.0
aF0.0
aF0.0
aF0.0
aF0.0
aF0.0
aF0.0
aF0.0
aF0.0
aF0.0
aF0.0
aF0.0
aF0.0
aF0.0
aF0.0
aF0.0
aF0.0
aF0.0
aF0.0
aF0.0
aF0.0
aF0.0
aF0.0
aF0.0
aF0.0
aF0.0
aF0.0
aF0.0
aF0.0
aF0.0
aF0.0
aF0.0
aF0.0
aF0.0
aF0.0
aF0.0
aF0.0
aF0.0
aF0.0
aF0.0
aF0.0
aF0.0
aF0.0
aF0.0
aF0.0
aF0.0
aF0.0
aF0.0
aF0.0
aF0.0
aF0.0
aF0.0
aF0.0
aF0.0
aF0.0
aF0.0
aF0.0
aF0.0
aF0.0
aF0.0
aF0.0
aF0.0
aF0.0
aF0.0
aF0.0
aF0.0
aF0.0
aF0.0
aF0.0
asg4
(lp12
F0.0
aF0.0
aF0.0
aF0.0080000000000000002
aF0.043999999999999997
aF0.094
aF0.124
aF0.12
aF0.106
aF0.098000000000000004
aF0.085999999999999993
aF0.112
aF0.11
aF0.126
aF0.13200000000000001
aF0.14599999999999999
aF0.156
aF0.13800000000000001
aF0.126
aF0.16200000000000001
aF0.16200000000000001
aF0.158
aF0.14199999999999999
aF0.156
aF0.16
aF0.14999999999999999
aF0.17399999999999999
aF0.17999999999999999
aF0.16
aF0.158
aF0.16
aF0.154
aF0.16
aF0.17399999999999999
aF0.16200000000000001
aF0.16
aF0.14999999999999999
aF0.16400000000000001
aF0.16600000000000001
aF0.156
aF0.156
aF0.16800000000000001
aF0.16200000000000001
aF0.13
aF0.13400000000000001
aF0.17999999999999999
aF0.17399999999999999
aF0.192
aF0.186
aF0.156
aF0.158
aF0.17000000000000001
aF0.17599999999999999
aF0.13200000000000001
aF0.152
aF0.16200000000000001
aF0.17399999999999999
aF0.186
aF0.182
aF0.16600000000000001
aF0.154
aF0.13800000000000001
aF0.14399999999999999
aF0.13
aF0.128
aF0.14799999999999999
aF0.13600000000000001
aF0.14399999999999999
aF0.16
aF0.17199999999999999
aF0.17599999999999999
aF0.186
aF0.19400000000000001
aF0.17399999999999999
aF0.17199999999999999
aF0.17799999999999999
aF0.20200000000000001
aF0.19600000000000001
aF0.17799999999999999
aF0.17399999999999999
aF0.17999999999999999
aF0.156
aF0.14399999999999999
aF0.14199999999999999
aF0.158
aF0.152
aF0.17399999999999999
aF0.14399999999999999
aF0.17399999999999999
aF0.17799999999999999
aF0.16600000000000001
aF0.14199999999999999
aF0.14399999999999999
aF0.13800000000000001
aF0.13800000000000001
aF0.17599999999999999
aF0.192
aF0.17999999999999999
aF0.17000000000000001
aF0.19
aF0.186
asg6
(lp13
F0.0
aF0.043999999999999997
aF0.22800000000000001
aF0.22800000000000001
aF0.20200000000000001
aF0.23799999999999999
aF0.20999999999999999
aF0.20599999999999999
aF0.22
aF0.22
aF0.248
aF0.224
aF0.23000000000000001
aF0.23999999999999999
aF0.246
aF0.23000000000000001
aF0.22
aF0.23000000000000001
aF0.246
aF0.23599999999999999
aF0.22600000000000001
aF0.23400000000000001
aF0.248
aF0.22
aF0.22800000000000001
aF0.248
aF0.22600000000000001
aF0.22
aF0.252
aF0.254
aF0.27000000000000002
aF0.23999999999999999
aF0.26600000000000001
aF0.27200000000000002
aF0.25800000000000001
aF0.22
aF0.25
aF0.246
aF0.28000000000000003
aF0.27000000000000002
aF0.20599999999999999
aF0.20799999999999999
aF0.252
aF0.248
aF0.26200000000000001
aF0.26000000000000001
aF0.248
aF0.23599999999999999
aF0.24199999999999999
aF0.20200000000000001
aF0.20799999999999999
aF0.23400000000000001
aF0.22600000000000001
aF0.246
aF0.23200000000000001
aF0.25600000000000001
aF0.248
aF0.23999999999999999
aF0.20999999999999999
aF0.19800000000000001
aF0.25
aF0.21199999999999999
aF0.23599999999999999
aF0.218
aF0.27000000000000002
aF0.23599999999999999
aF0.22
aF0.252
aF0.27200000000000002
aF0.29799999999999999
aF0.29399999999999998
aF0.22600000000000001
aF0.26600000000000001
aF0.254
aF0.26200000000000001
aF0.26600000000000001
aF0.26400000000000001
aF0.27400000000000002
aF0.26200000000000001
aF0.22
aF0.23400000000000001
aF0.25
aF0.248
aF0.26000000000000001
aF0.23200000000000001
aF0.24199999999999999
aF0.25
aF0.26400000000000001
aF0.214
aF0.214
aF0.222
aF0.248
aF0.21199999999999999
aF0.22800000000000001
aF0.23200000000000001
aF0.25600000000000001
aF0.246
aF0.28199999999999997
aF0.25600000000000001
aF0.252
aF0.24399999999999999
asg8
(lp14
F0.0
aF0.0
aF0.051999999999999998
aF0.19600000000000001
aF0.308
aF0.318
aF0.35599999999999998
aF0.34999999999999998
aF0.35599999999999998
aF0.35399999999999998
aF0.36199999999999999
aF0.36599999999999999
aF0.38600000000000001
aF0.38400000000000001
aF0.38400000000000001
aF0.41399999999999998
aF0.40200000000000002
aF0.37
aF0.39800000000000002
aF0.41599999999999998
aF0.374
aF0.41799999999999998
aF0.40999999999999998
aF0.40200000000000002
aF0.41399999999999998
aF0.39800000000000002
aF0.39400000000000002
aF0.41999999999999998
aF0.438
aF0.42599999999999999
aF0.40000000000000002
aF0.42799999999999999
aF0.42799999999999999
aF0.45800000000000002
aF0.44800000000000001
aF0.438
aF0.432
aF0.42599999999999999
aF0.44800000000000001
aF0.46400000000000002
aF0.45000000000000001
aF0.42999999999999999
aF0.40400000000000003
aF0.40999999999999998
aF0.41799999999999998
aF0.434
aF0.45400000000000001
aF0.436
aF0.44
aF0.42799999999999999
aF0.42399999999999999
aF0.39800000000000002
aF0.438
aF0.42999999999999999
aF0.41399999999999998
aF0.41399999999999998
aF0.41599999999999998
aF0.39600000000000002
aF0.434
aF0.44
aF0.39600000000000002
aF0.436
aF0.40999999999999998
aF0.40799999999999997
aF0.35399999999999998
aF0.39600000000000002
aF0.442
aF0.41199999999999998
aF0.40200000000000002
aF0.42199999999999999
aF0.46400000000000002
aF0.46000000000000002
aF0.46200000000000002
aF0.48599999999999999
aF0.46999999999999997
aF0.45600000000000002
aF0.432
aF0.45200000000000001
aF0.46999999999999997
aF0.46200000000000002
aF0.45400000000000001
aF0.434
aF0.42599999999999999
aF0.42799999999999999
aF0.42399999999999999
aF0.41799999999999998
aF0.41199999999999998
aF0.438
aF0.42799999999999999
aF0.40999999999999998
aF0.41399999999999998
aF0.40600000000000003
aF0.40999999999999998
aF0.40600000000000003
aF0.436
aF0.45000000000000001
aF0.434
aF0.45800000000000002
aF0.48399999999999999
aF0.46999999999999997
aF0.44400000000000001
asa.