(lp0
(dp1
S'Fyn'
p2
(lp3
F0.0
aF0.0
aF0.002
aF0.016
aF0.069000000000000006
aF0.096000000000000002
aF0.087999999999999995
aF0.069000000000000006
aF0.082000000000000003
aF0.085000000000000006
aF0.087999999999999995
aF0.088999999999999996
aF0.091999999999999998
aF0.071999999999999995
aF0.060999999999999999
aF0.067000000000000004
aF0.076999999999999999
aF0.081000000000000003
aF0.085000000000000006
aF0.078
aF0.069000000000000006
aF0.062
aF0.068000000000000005
aF0.065000000000000002
aF0.069000000000000006
aF0.058999999999999997
aF0.062
aF0.055
aF0.056000000000000001
aF0.055
aF0.050999999999999997
aF0.049000000000000002
aF0.052999999999999999
aF0.058000000000000003
aF0.064000000000000001
aF0.070000000000000007
aF0.051999999999999998
aF0.035999999999999997
aF0.029999999999999999
aF0.049000000000000002
aF0.050000000000000003
aF0.036999999999999998
aF0.049000000000000002
aF0.050000000000000003
aF0.042999999999999997
aF0.032000000000000001
aF0.035000000000000003
aF0.036999999999999998
aF0.032000000000000001
aF0.033000000000000002
aF0.036999999999999998
aF0.037999999999999999
aF0.033000000000000002
aF0.034000000000000002
aF0.029000000000000001
aF0.028000000000000001
aF0.029000000000000001
aF0.029999999999999999
aF0.025000000000000001
aF0.029000000000000001
aF0.033000000000000002
aF0.027
aF0.017999999999999999
aF0.014999999999999999
aF0.016
aF0.021000000000000001
aF0.019
aF0.016
aF0.017000000000000001
aF0.024
aF0.025999999999999999
aF0.023
aF0.027
aF0.010999999999999999
aF0.012999999999999999
aF0.01
aF0.01
aF0.014
aF0.012
aF0.012999999999999999
aF0.014
aF0.014
aF0.012999999999999999
aF0.012999999999999999
aF0.010999999999999999
aF0.0080000000000000002
aF0.0080000000000000002
aF0.0070000000000000001
aF0.014999999999999999
aF0.012999999999999999
aF0.014999999999999999
aF0.02
aF0.014
aF0.01
aF0.014
aF0.012999999999999999
aF0.010999999999999999
aF0.01
aF0.0089999999999999993
aF0.0089999999999999993
aF0.0089999999999999993
asS'SMAD7'
p4
(lp5
F0.0
aF0.0
aF0.001
aF0.014
aF0.075999999999999998
aF0.14999999999999999
aF0.13300000000000001
aF0.13900000000000001
aF0.14999999999999999
aF0.123
aF0.115
aF0.129
aF0.105
aF0.106
aF0.070000000000000007
aF0.082000000000000003
aF0.075999999999999998
aF0.069000000000000006
aF0.073999999999999996
aF0.069000000000000006
aF0.076999999999999999
aF0.067000000000000004
aF0.065000000000000002
aF0.063
aF0.057000000000000002
aF0.059999999999999998
aF0.052999999999999999
aF0.043999999999999997
aF0.043999999999999997
aF0.043999999999999997
aF0.035999999999999997
aF0.029000000000000001
aF0.041000000000000002
aF0.042999999999999997
aF0.031
aF0.035999999999999997
aF0.039
aF0.019
aF0.014999999999999999
aF0.024
aF0.02
aF0.021999999999999999
aF0.021999999999999999
aF0.027
aF0.02
aF0.021000000000000001
aF0.014999999999999999
aF0.019
aF0.021999999999999999
aF0.014
aF0.01
aF0.012999999999999999
aF0.012
aF0.010999999999999999
aF0.0089999999999999993
aF0.0080000000000000002
aF0.0089999999999999993
aF0.014
aF0.0089999999999999993
aF0.0080000000000000002
aF0.010999999999999999
aF0.0089999999999999993
aF0.0089999999999999993
aF0.0070000000000000001
aF0.0070000000000000001
aF0.0060000000000000001
aF0.0040000000000000001
aF0.0040000000000000001
aF0.0030000000000000001
aF0.0080000000000000002
aF0.001
aF0.0070000000000000001
aF0.0070000000000000001
aF0.0050000000000000001
aF0.0040000000000000001
aF0.0050000000000000001
aF0.002
aF0.002
aF0.0030000000000000001
aF0.0030000000000000001
aF0.0050000000000000001
aF0.0060000000000000001
aF0.0050000000000000001
aF0.0030000000000000001
aF0.0030000000000000001
aF0.0070000000000000001
aF0.0030000000000000001
aF0.002
aF0.0040000000000000001
aF0.0030000000000000001
aF0.0060000000000000001
aF0.0030000000000000001
aF0.0030000000000000001
aF0.0030000000000000001
aF0.0040000000000000001
aF0.002
aF0.0040000000000000001
aF0.002
aF0.001
aF0.001
aF0.002
asS'TBET'
p6
(lp7
F0.0
aF0.0
aF0.0
aF0.0030000000000000001
aF0.012999999999999999
aF0.052999999999999999
aF0.11
aF0.121
aF0.121
aF0.115
aF0.126
aF0.127
aF0.122
aF0.11600000000000001
aF0.109
aF0.091999999999999998
aF0.095000000000000001
aF0.105
aF0.107
aF0.114
aF0.11700000000000001
aF0.107
aF0.10100000000000001
aF0.114
aF0.105
aF0.094
aF0.097000000000000003
aF0.083000000000000004
aF0.086999999999999994
aF0.085999999999999993
aF0.072999999999999995
aF0.071999999999999995
aF0.080000000000000002
aF0.076999999999999999
aF0.086999999999999994
aF0.094
aF0.092999999999999999
aF0.083000000000000004
aF0.073999999999999996
aF0.063
aF0.065000000000000002
aF0.074999999999999997
aF0.065000000000000002
aF0.067000000000000004
aF0.079000000000000001
aF0.070999999999999994
aF0.062
aF0.055
aF0.058000000000000003
aF0.050000000000000003
aF0.055
aF0.050999999999999997
aF0.049000000000000002
aF0.047
aF0.049000000000000002
aF0.035000000000000003
aF0.050000000000000003
aF0.042999999999999997
aF0.039
aF0.041000000000000002
aF0.037999999999999999
aF0.040000000000000001
aF0.044999999999999998
aF0.040000000000000001
aF0.033000000000000002
aF0.027
aF0.027
aF0.025000000000000001
aF0.021000000000000001
aF0.019
aF0.025999999999999999
aF0.031
aF0.028000000000000001
aF0.027
aF0.025000000000000001
aF0.019
aF0.017000000000000001
aF0.014999999999999999
aF0.016
aF0.016
aF0.021000000000000001
aF0.024
aF0.025999999999999999
aF0.023
aF0.024
aF0.017999999999999999
aF0.010999999999999999
aF0.014
aF0.012
aF0.016
aF0.024
aF0.02
aF0.025000000000000001
aF0.019
aF0.014999999999999999
aF0.019
aF0.02
aF0.019
aF0.010999999999999999
aF0.012999999999999999
aF0.017000000000000001
asS'TRADD'
p8
(lp9
F0.0
aF0.0
aF0.0
aF0.0
aF0.0
aF0.0
aF0.0
aF0.001
aF0.0060000000000000001
aF0.0060000000000000001
aF0.0080000000000000002
aF0.0080000000000000002
aF0.0080000000000000002
aF0.0060000000000000001
aF0.0030000000000000001
aF0.0060000000000000001
aF0.0060000000000000001
aF0.0040000000000000001
aF0.0040000000000000001
aF0.0070000000000000001
aF0.0030000000000000001
aF0.0040000000000000001
aF0.0030000000000000001
aF0.0040000000000000001
aF0.0030000000000000001
aF0.002
aF0.0030000000000000001
aF0.01
aF0.0080000000000000002
aF0.0080000000000000002
aF0.0070000000000000001
aF0.0
aF0.0070000000000000001
aF0.0040000000000000001
aF0.0050000000000000001
aF0.0060000000000000001
aF0.0030000000000000001
aF0.0040000000000000001
aF0.0040000000000000001
aF0.002
aF0.002
aF0.0030000000000000001
aF0.0040000000000000001
aF0.0089999999999999993
aF0.002
aF0.002
aF0.0030000000000000001
aF0.0040000000000000001
aF0.001
aF0.0050000000000000001
aF0.0040000000000000001
aF0.0030000000000000001
aF0.001
aF0.0030000000000000001
aF0.0060000000000000001
aF0.001
aF0.001
aF0.001
aF0.001
aF0.0
aF0.0030000000000000001
aF0.0050000000000000001
aF0.0040000000000000001
aF0.0
aF0.0030000000000000001
aF0.002
aF0.002
aF0.002
aF0.001
aF0.001
aF0.002
aF0.002
aF0.0030000000000000001
aF0.0030000000000000001
aF0.002
aF0.001
aF0.001
aF0.0
aF0.001
aF0.001
aF0.001
aF0.0
aF0.002
aF0.002
aF0.001
aF0.0
aF0.002
aF0.0
aF0.0
aF0.0
aF0.001
aF0.0
aF0.0
aF0.0030000000000000001
aF0.0030000000000000001
aF0.0030000000000000001
aF0.0
aF0.001
aF0.0
aF0.0
aF0.0
asS'IFN'
p10
(lp11
F0.0
aF0.0
aF0.0
aF0.0
aF0.0080000000000000002
aF0.028000000000000001
aF0.063
aF0.070000000000000007
aF0.072999999999999995
aF0.083000000000000004
aF0.089999999999999997
aF0.094
aF0.098000000000000004
aF0.085999999999999993
aF0.081000000000000003
aF0.075999999999999998
aF0.080000000000000002
aF0.081000000000000003
aF0.083000000000000004
aF0.091999999999999998
aF0.095000000000000001
aF0.089999999999999997
aF0.080000000000000002
aF0.087999999999999995
aF0.081000000000000003
aF0.067000000000000004
aF0.078
aF0.075999999999999998
aF0.069000000000000006
aF0.069000000000000006
aF0.059999999999999998
aF0.062
aF0.073999999999999996
aF0.060999999999999999
aF0.074999999999999997
aF0.079000000000000001
aF0.084000000000000005
aF0.084000000000000005
aF0.063
aF0.048000000000000001
aF0.058000000000000003
aF0.068000000000000005
aF0.060999999999999999
aF0.058000000000000003
aF0.070999999999999994
aF0.059999999999999998
aF0.060999999999999999
aF0.055
aF0.052999999999999999
aF0.042999999999999997
aF0.050999999999999997
aF0.047
aF0.044999999999999998
aF0.042000000000000003
aF0.043999999999999997
aF0.040000000000000001
aF0.039
aF0.035999999999999997
aF0.033000000000000002
aF0.039
aF0.037999999999999999
aF0.042999999999999997
aF0.044999999999999998
aF0.040000000000000001
aF0.031
aF0.034000000000000002
aF0.028000000000000001
aF0.024
aF0.024
aF0.017999999999999999
aF0.021000000000000001
aF0.021999999999999999
aF0.029000000000000001
aF0.027
aF0.024
aF0.012999999999999999
aF0.014
aF0.016
aF0.014
aF0.02
aF0.019
aF0.021000000000000001
aF0.027
aF0.025999999999999999
aF0.021000000000000001
aF0.02
aF0.014
aF0.014
aF0.014999999999999999
aF0.014999999999999999
aF0.025000000000000001
aF0.017999999999999999
aF0.023
aF0.019
aF0.017000000000000001
aF0.017999999999999999
aF0.019
aF0.017999999999999999
aF0.014999999999999999
aF0.016
aF0.016
asS'PLC'
p12
(lp13
F0.0
aF0.034000000000000002
aF0.23000000000000001
aF0.249
aF0.157
aF0.22600000000000001
aF0.23200000000000001
aF0.21099999999999999
aF0.215
aF0.192
aF0.21199999999999999
aF0.19800000000000001
aF0.189
aF0.19900000000000001
aF0.17999999999999999
aF0.185
aF0.19700000000000001
aF0.18099999999999999
aF0.16400000000000001
aF0.17999999999999999
aF0.185
aF0.16900000000000001
aF0.16600000000000001
aF0.14799999999999999
aF0.14199999999999999
aF0.13700000000000001
aF0.13700000000000001
aF0.14099999999999999
aF0.14699999999999999
aF0.13400000000000001
aF0.13700000000000001
aF0.13100000000000001
aF0.152
aF0.151
aF0.124
aF0.114
aF0.11600000000000001
aF0.115
aF0.105
aF0.11
aF0.113
aF0.106
aF0.099000000000000005
aF0.092999999999999999
aF0.098000000000000004
aF0.096000000000000002
aF0.099000000000000005
aF0.10199999999999999
aF0.090999999999999998
aF0.073999999999999996
aF0.085999999999999993
aF0.079000000000000001
aF0.072999999999999995
aF0.074999999999999997
aF0.084000000000000005
aF0.058999999999999997
aF0.067000000000000004
aF0.071999999999999995
aF0.070000000000000007
aF0.070999999999999994
aF0.070999999999999994
aF0.051999999999999998
aF0.044999999999999998
aF0.048000000000000001
aF0.042999999999999997
aF0.042000000000000003
aF0.049000000000000002
aF0.044999999999999998
aF0.048000000000000001
aF0.053999999999999999
aF0.045999999999999999
aF0.036999999999999998
aF0.033000000000000002
aF0.033000000000000002
aF0.029000000000000001
aF0.042000000000000003
aF0.035999999999999997
aF0.034000000000000002
aF0.033000000000000002
aF0.035000000000000003
aF0.029000000000000001
aF0.033000000000000002
aF0.032000000000000001
aF0.027
aF0.027
aF0.029000000000000001
aF0.031
aF0.029000000000000001
aF0.034000000000000002
aF0.029000000000000001
aF0.023
aF0.028000000000000001
aF0.034000000000000002
aF0.027
aF0.033000000000000002
aF0.028000000000000001
aF0.021999999999999999
aF0.025999999999999999
aF0.023
aF0.019
aF0.019
asS'Proliferation'
p14
(lp15
F0.0
aF0.0
aF0.0
aF0.0
aF0.0050000000000000001
aF0.012
aF0.039
aF0.063
aF0.074999999999999997
aF0.082000000000000003
aF0.081000000000000003
aF0.083000000000000004
aF0.091999999999999998
aF0.085999999999999993
aF0.084000000000000005
aF0.080000000000000002
aF0.067000000000000004
aF0.071999999999999995
aF0.083000000000000004
aF0.088999999999999996
aF0.088999999999999996
aF0.092999999999999999
aF0.078
aF0.083000000000000004
aF0.073999999999999996
aF0.072999999999999995
aF0.059999999999999998
aF0.071999999999999995
aF0.070000000000000007
aF0.068000000000000005
aF0.063
aF0.058000000000000003
aF0.051999999999999998
aF0.064000000000000001
aF0.068000000000000005
aF0.069000000000000006
aF0.070000000000000007
aF0.071999999999999995
aF0.073999999999999996
aF0.055
aF0.050999999999999997
aF0.067000000000000004
aF0.063
aF0.064000000000000001
aF0.058999999999999997
aF0.053999999999999999
aF0.056000000000000001
aF0.053999999999999999
aF0.056000000000000001
aF0.050000000000000003
aF0.045999999999999999
aF0.043999999999999997
aF0.043999999999999997
aF0.050000000000000003
aF0.040000000000000001
aF0.035000000000000003
aF0.040000000000000001
aF0.034000000000000002
aF0.033000000000000002
aF0.033000000000000002
aF0.034000000000000002
aF0.034000000000000002
aF0.036999999999999998
aF0.039
aF0.037999999999999999
aF0.033000000000000002
aF0.027
aF0.025000000000000001
aF0.027
aF0.019
aF0.021999999999999999
aF0.027
aF0.025999999999999999
aF0.024
aF0.023
aF0.02
aF0.017000000000000001
aF0.017999999999999999
aF0.014
aF0.014999999999999999
aF0.017000000000000001
aF0.014
aF0.017000000000000001
aF0.025000000000000001
aF0.025000000000000001
aF0.017999999999999999
aF0.014999999999999999
aF0.012
aF0.012
aF0.014
aF0.017000000000000001
aF0.016
aF0.02
aF0.021999999999999999
aF0.017999999999999999
aF0.016
aF0.017000000000000001
aF0.019
aF0.016
aF0.014
aF0.014999999999999999
asS'STAT3'
p16
(lp17
F0.0
aF0.0
aF0.0
aF0.0060000000000000001
aF0.037999999999999999
aF0.089999999999999997
aF0.115
aF0.11899999999999999
aF0.109
aF0.129
aF0.13200000000000001
aF0.126
aF0.121
aF0.12
aF0.104
aF0.088999999999999996
aF0.094
aF0.10100000000000001
aF0.11600000000000001
aF0.11600000000000001
aF0.11700000000000001
aF0.090999999999999998
aF0.10199999999999999
aF0.10299999999999999
aF0.10000000000000001
aF0.096000000000000002
aF0.088999999999999996
aF0.087999999999999995
aF0.083000000000000004
aF0.078
aF0.072999999999999995
aF0.070999999999999994
aF0.076999999999999999
aF0.083000000000000004
aF0.088999999999999996
aF0.090999999999999998
aF0.095000000000000001
aF0.082000000000000003
aF0.060999999999999999
aF0.058000000000000003
aF0.073999999999999996
aF0.070000000000000007
aF0.064000000000000001
aF0.075999999999999998
aF0.071999999999999995
aF0.060999999999999999
aF0.057000000000000002
aF0.063
aF0.058999999999999997
aF0.051999999999999998
aF0.043999999999999997
aF0.049000000000000002
aF0.047
aF0.047
aF0.042999999999999997
aF0.043999999999999997
aF0.042999999999999997
aF0.042999999999999997
aF0.037999999999999999
aF0.034000000000000002
aF0.041000000000000002
aF0.042000000000000003
aF0.040000000000000001
aF0.036999999999999998
aF0.035000000000000003
aF0.027
aF0.028000000000000001
aF0.024
aF0.02
aF0.027
aF0.027
aF0.033000000000000002
aF0.032000000000000001
aF0.025999999999999999
aF0.021999999999999999
aF0.017000000000000001
aF0.014999999999999999
aF0.012999999999999999
aF0.017999999999999999
aF0.019
aF0.019
aF0.021000000000000001
aF0.028000000000000001
aF0.024
aF0.02
aF0.014
aF0.012
aF0.012
aF0.016
aF0.021000000000000001
aF0.02
aF0.021999999999999999
aF0.025999999999999999
aF0.019
aF0.014
aF0.023
aF0.02
aF0.017000000000000001
aF0.012
aF0.017999999999999999
aF0.016
asS'Apoptosis'
p18
(lp19
F0.0
aF0.0
aF0.0
aF0.0
aF0.0
aF0.0
aF0.001
aF0.002
aF0.0060000000000000001
aF0.014999999999999999
aF0.032000000000000001
aF0.043999999999999997
aF0.067000000000000004
aF0.097000000000000003
aF0.11799999999999999
aF0.13200000000000001
aF0.151
aF0.16400000000000001
aF0.18099999999999999
aF0.19600000000000001
aF0.219
aF0.23499999999999999
aF0.25600000000000001
aF0.27800000000000002
aF0.29699999999999999
aF0.31
aF0.32100000000000001
aF0.33700000000000002
aF0.35199999999999998
aF0.36499999999999999
aF0.38500000000000001
aF0.39600000000000002
aF0.40600000000000003
aF0.41999999999999998
aF0.435
aF0.44800000000000001
aF0.46500000000000002
aF0.48299999999999998
aF0.49099999999999999
aF0.501
aF0.51600000000000001
aF0.53100000000000003
aF0.54200000000000004
aF0.55300000000000005
aF0.56100000000000005
aF0.57599999999999996
aF0.58599999999999997
aF0.59399999999999997
aF0.60899999999999999
aF0.61799999999999999
aF0.63
aF0.64100000000000001
aF0.64700000000000002
aF0.65900000000000003
aF0.67200000000000004
aF0.68500000000000005
aF0.69099999999999995
aF0.70199999999999996
aF0.70899999999999996
aF0.71499999999999997
aF0.71999999999999997
aF0.72899999999999998
aF0.73699999999999999
aF0.74099999999999999
aF0.748
aF0.75700000000000001
aF0.76800000000000002
aF0.77300000000000002
aF0.77900000000000003
aF0.78600000000000003
aF0.79200000000000004
aF0.79900000000000004
aF0.80100000000000005
aF0.80900000000000005
aF0.81200000000000006
aF0.81799999999999995
aF0.82199999999999995
aF0.82999999999999996
aF0.83099999999999996
aF0.83399999999999996
aF0.83699999999999997
aF0.84099999999999997
aF0.84499999999999997
aF0.84799999999999998
aF0.85199999999999998
aF0.85699999999999998
aF0.85999999999999999
aF0.86199999999999999
aF0.86499999999999999
aF0.86599999999999999
aF0.872
aF0.875
aF0.875
aF0.877
aF0.879
aF0.88500000000000001
aF0.88900000000000001
aF0.89300000000000002
aF0.89400000000000002
aF0.89700000000000002
aF0.90100000000000002
asS'BID'
p20
(lp21
F0.0
aF0.0
aF0.0
aF0.001
aF0.001
aF0.01
aF0.045999999999999999
aF0.097000000000000003
aF0.14000000000000001
aF0.16700000000000001
aF0.20300000000000001
aF0.22600000000000001
aF0.254
aF0.25600000000000001
aF0.27900000000000003
aF0.28199999999999997
aF0.28899999999999998
aF0.29999999999999999
aF0.30399999999999999
aF0.313
aF0.313
aF0.318
aF0.32000000000000001
aF0.316
aF0.32300000000000001
aF0.33000000000000002
aF0.33800000000000002
aF0.34300000000000003
aF0.34399999999999997
aF0.34999999999999998
aF0.34100000000000003
aF0.34300000000000003
aF0.34599999999999997
aF0.34799999999999998
aF0.34799999999999998
aF0.34200000000000003
aF0.34100000000000003
aF0.32900000000000001
aF0.32800000000000001
aF0.33000000000000002
aF0.32300000000000001
aF0.318
aF0.313
aF0.30399999999999999
aF0.309
aF0.308
aF0.30399999999999999
aF0.29699999999999999
aF0.29299999999999998
aF0.28299999999999997
aF0.27700000000000002
aF0.27200000000000002
aF0.27200000000000002
aF0.27000000000000002
aF0.252
aF0.24299999999999999
aF0.23799999999999999
aF0.23599999999999999
aF0.23100000000000001
aF0.22800000000000001
aF0.224
aF0.22
aF0.21299999999999999
aF0.215
aF0.20999999999999999
aF0.20100000000000001
aF0.19600000000000001
aF0.184
aF0.17699999999999999
aF0.17399999999999999
aF0.16600000000000001
aF0.16400000000000001
aF0.16
aF0.159
aF0.159
aF0.153
aF0.152
aF0.14799999999999999
aF0.14299999999999999
aF0.14000000000000001
aF0.13700000000000001
aF0.13700000000000001
aF0.13300000000000001
aF0.13200000000000001
aF0.127
aF0.124
aF0.122
aF0.11899999999999999
aF0.11700000000000001
aF0.11799999999999999
aF0.112
aF0.11
aF0.107
aF0.108
aF0.107
aF0.10299999999999999
aF0.097000000000000003
aF0.095000000000000001
aF0.091999999999999998
aF0.089999999999999997
aF0.088999999999999996
asS'TCR'
p22
(lp23
F0.0
aF1.0
aF0.23499999999999999
aF0.504
aF0.61399999999999999
aF0.38900000000000001
aF0.56599999999999995
aF0.48299999999999998
aF0.48799999999999999
aF0.499
aF0.47199999999999998
aF0.49299999999999999
aF0.47899999999999998
aF0.439
aF0.46600000000000003
aF0.44
aF0.44600000000000001
aF0.42799999999999999
aF0.42899999999999999
aF0.39700000000000002
aF0.41599999999999998
aF0.38300000000000001
aF0.36899999999999999
aF0.373
aF0.36299999999999999
aF0.34300000000000003
aF0.34200000000000003
aF0.33000000000000002
aF0.33400000000000002
aF0.32400000000000001
aF0.308
aF0.28999999999999998
aF0.30299999999999999
aF0.31900000000000001
aF0.27800000000000002
aF0.28499999999999998
aF0.28499999999999998
aF0.24199999999999999
aF0.26900000000000002
aF0.251
aF0.23999999999999999
aF0.24099999999999999
aF0.23200000000000001
aF0.215
aF0.22800000000000001
aF0.20399999999999999
aF0.20699999999999999
aF0.20899999999999999
aF0.19400000000000001
aF0.19900000000000001
aF0.182
aF0.184
aF0.17399999999999999
aF0.17599999999999999
aF0.17100000000000001
aF0.14799999999999999
aF0.16600000000000001
aF0.14999999999999999
aF0.13900000000000001
aF0.16
aF0.13800000000000001
aF0.151
aF0.124
aF0.14000000000000001
aF0.128
aF0.111
aF0.128
aF0.112
aF0.104
aF0.111
aF0.10199999999999999
aF0.104
aF0.091999999999999998
aF0.104
aF0.088999999999999996
aF0.097000000000000003
aF0.092999999999999999
aF0.084000000000000005
aF0.084000000000000005
aF0.083000000000000004
aF0.089999999999999997
aF0.067000000000000004
aF0.089999999999999997
aF0.070000000000000007
aF0.079000000000000001
aF0.071999999999999995
aF0.068000000000000005
aF0.071999999999999995
aF0.059999999999999998
aF0.072999999999999995
aF0.067000000000000004
aF0.065000000000000002
aF0.058000000000000003
aF0.067000000000000004
aF0.067000000000000004
aF0.051999999999999998
aF0.053999999999999999
aF0.053999999999999999
aF0.049000000000000002
aF0.050999999999999997
aF0.050000000000000003
asS'Caspase'
p24
(lp25
F0.0
aF0.0
aF0.0
aF0.0
aF0.0
aF0.0
aF0.002
aF0.002
aF0.0070000000000000001
aF0.010999999999999999
aF0.023
aF0.021000000000000001
aF0.031
aF0.035999999999999997
aF0.023
aF0.02
aF0.025999999999999999
aF0.014999999999999999
aF0.025999999999999999
aF0.021999999999999999
aF0.024
aF0.021000000000000001
aF0.029000000000000001
aF0.028000000000000001
aF0.024
aF0.014999999999999999
aF0.014999999999999999
aF0.024
aF0.014
aF0.02
aF0.023
aF0.016
aF0.016
aF0.014
aF0.02
aF0.021999999999999999
aF0.024
aF0.01
aF0.014
aF0.012999999999999999
aF0.02
aF0.014999999999999999
aF0.012999999999999999
aF0.010999999999999999
aF0.014
aF0.019
aF0.012
aF0.017000000000000001
aF0.012999999999999999
aF0.014999999999999999
aF0.010999999999999999
aF0.014
aF0.014
aF0.016
aF0.017000000000000001
aF0.014
aF0.0080000000000000002
aF0.012999999999999999
aF0.0089999999999999993
aF0.0050000000000000001
aF0.01
aF0.010999999999999999
aF0.010999999999999999
aF0.0080000000000000002
aF0.0089999999999999993
aF0.012
aF0.01
aF0.0050000000000000001
aF0.0080000000000000002
aF0.0070000000000000001
aF0.012
aF0.0040000000000000001
aF0.0070000000000000001
aF0.0089999999999999993
aF0.0060000000000000001
aF0.0070000000000000001
aF0.0080000000000000002
aF0.0050000000000000001
aF0.0040000000000000001
aF0.0030000000000000001
aF0.002
aF0.0070000000000000001
aF0.002
aF0.0070000000000000001
aF0.0040000000000000001
aF0.0040000000000000001
aF0.0030000000000000001
aF0.0050000000000000001
aF0.0050000000000000001
aF0.0040000000000000001
aF0.0060000000000000001
aF0.001
aF0.002
aF0.0030000000000000001
aF0.0060000000000000001
aF0.010999999999999999
aF0.0040000000000000001
aF0.0030000000000000001
aF0.0030000000000000001
aF0.0060000000000000001
aF0.0040000000000000001
asS'FasT'
p26
(lp27
F0.0
aF0.0
aF0.0
aF0.0
aF0.002
aF0.010999999999999999
aF0.028000000000000001
aF0.044999999999999998
aF0.068000000000000005
aF0.086999999999999994
aF0.096000000000000002
aF0.095000000000000001
aF0.105
aF0.090999999999999998
aF0.082000000000000003
aF0.083000000000000004
aF0.079000000000000001
aF0.079000000000000001
aF0.085000000000000006
aF0.091999999999999998
aF0.092999999999999999
aF0.092999999999999999
aF0.086999999999999994
aF0.080000000000000002
aF0.078
aF0.071999999999999995
aF0.067000000000000004
aF0.075999999999999998
aF0.072999999999999995
aF0.075999999999999998
aF0.073999999999999996
aF0.069000000000000006
aF0.070999999999999994
aF0.071999999999999995
aF0.074999999999999997
aF0.066000000000000003
aF0.068000000000000005
aF0.068000000000000005
aF0.058999999999999997
aF0.063
aF0.057000000000000002
aF0.053999999999999999
aF0.053999999999999999
aF0.055
aF0.055
aF0.058999999999999997
aF0.053999999999999999
aF0.052999999999999999
aF0.052999999999999999
aF0.056000000000000001
aF0.050999999999999997
aF0.048000000000000001
aF0.049000000000000002
aF0.049000000000000002
aF0.048000000000000001
aF0.041000000000000002
aF0.037999999999999999
aF0.040000000000000001
aF0.031
aF0.032000000000000001
aF0.035999999999999997
aF0.035999999999999997
aF0.034000000000000002
aF0.031
aF0.039
aF0.035999999999999997
aF0.031
aF0.029999999999999999
aF0.027
aF0.023
aF0.025999999999999999
aF0.027
aF0.028000000000000001
aF0.029000000000000001
aF0.029000000000000001
aF0.023
aF0.021999999999999999
aF0.019
aF0.014999999999999999
aF0.016
aF0.016
aF0.016
aF0.014
aF0.012999999999999999
aF0.016
aF0.017000000000000001
aF0.017000000000000001
aF0.016
aF0.012999999999999999
aF0.014
aF0.014999999999999999
aF0.01
aF0.017000000000000001
aF0.019
aF0.017999999999999999
aF0.019
aF0.017000000000000001
aF0.016
aF0.014999999999999999
aF0.012999999999999999
aF0.01
asS'GAP'
p28
(lp29
F0.0
aF0.0030000000000000001
aF0.075999999999999998
aF0.11700000000000001
aF0.076999999999999999
aF0.080000000000000002
aF0.090999999999999998
aF0.10100000000000001
aF0.112
aF0.097000000000000003
aF0.095000000000000001
aF0.090999999999999998
aF0.084000000000000005
aF0.090999999999999998
aF0.083000000000000004
aF0.074999999999999997
aF0.079000000000000001
aF0.086999999999999994
aF0.070999999999999994
aF0.099000000000000005
aF0.086999999999999994
aF0.069000000000000006
aF0.081000000000000003
aF0.071999999999999995
aF0.056000000000000001
aF0.065000000000000002
aF0.067000000000000004
aF0.050999999999999997
aF0.053999999999999999
aF0.066000000000000003
aF0.058000000000000003
aF0.057000000000000002
aF0.062
aF0.070000000000000007
aF0.055
aF0.042999999999999997
aF0.060999999999999999
aF0.048000000000000001
aF0.043999999999999997
aF0.040000000000000001
aF0.057000000000000002
aF0.048000000000000001
aF0.043999999999999997
aF0.040000000000000001
aF0.045999999999999999
aF0.033000000000000002
aF0.044999999999999998
aF0.042000000000000003
aF0.039
aF0.035999999999999997
aF0.039
aF0.049000000000000002
aF0.034000000000000002
aF0.027
aF0.035999999999999997
aF0.032000000000000001
aF0.028000000000000001
aF0.02
aF0.033000000000000002
aF0.024
aF0.029999999999999999
aF0.021000000000000001
aF0.024
aF0.021000000000000001
aF0.023
aF0.023
aF0.019
aF0.021000000000000001
aF0.019
aF0.028000000000000001
aF0.017999999999999999
aF0.021000000000000001
aF0.02
aF0.016
aF0.012999999999999999
aF0.014999999999999999
aF0.017999999999999999
aF0.014999999999999999
aF0.016
aF0.012999999999999999
aF0.0089999999999999993
aF0.014
aF0.012999999999999999
aF0.017999999999999999
aF0.014
aF0.016
aF0.014
aF0.017000000000000001
aF0.0080000000000000002
aF0.012
aF0.0050000000000000001
aF0.012999999999999999
aF0.01
aF0.01
aF0.014999999999999999
aF0.017999999999999999
aF0.0050000000000000001
aF0.0080000000000000002
aF0.0080000000000000002
aF0.0089999999999999993
aF0.0070000000000000001
asS'IL2R'
p30
(lp31
F0.0
aF0.0
aF0.0
aF0.0030000000000000001
aF0.0089999999999999993
aF0.016
aF0.019
aF0.017999999999999999
aF0.014
aF0.0080000000000000002
aF0.017000000000000001
aF0.016
aF0.01
aF0.014
aF0.016
aF0.017999999999999999
aF0.012999999999999999
aF0.021000000000000001
aF0.025000000000000001
aF0.012
aF0.014999999999999999
aF0.014
aF0.019
aF0.014
aF0.014
aF0.0080000000000000002
aF0.017000000000000001
aF0.012999999999999999
aF0.010999999999999999
aF0.016
aF0.0089999999999999993
aF0.016
aF0.01
aF0.014999999999999999
aF0.016
aF0.017999999999999999
aF0.014
aF0.0070000000000000001
aF0.0050000000000000001
aF0.012
aF0.012999999999999999
aF0.014
aF0.0080000000000000002
aF0.012999999999999999
aF0.0089999999999999993
aF0.0050000000000000001
aF0.012999999999999999
aF0.0080000000000000002
aF0.012
aF0.0060000000000000001
aF0.010999999999999999
aF0.002
aF0.012
aF0.010999999999999999
aF0.0040000000000000001
aF0.0089999999999999993
aF0.0050000000000000001
aF0.0080000000000000002
aF0.0080000000000000002
aF0.0030000000000000001
aF0.014
aF0.0070000000000000001
aF0.0080000000000000002
aF0.0040000000000000001
aF0.0050000000000000001
aF0.0040000000000000001
aF0.010999999999999999
aF0.0030000000000000001
aF0.002
aF0.0050000000000000001
aF0.0089999999999999993
aF0.0030000000000000001
aF0.0050000000000000001
aF0.0030000000000000001
aF0.0030000000000000001
aF0.0050000000000000001
aF0.0040000000000000001
aF0.002
aF0.0050000000000000001
aF0.0040000000000000001
aF0.0060000000000000001
aF0.0030000000000000001
aF0.0030000000000000001
aF0.0030000000000000001
aF0.002
aF0.0
aF0.001
aF0.002
aF0.0050000000000000001
aF0.001
aF0.0030000000000000001
aF0.0030000000000000001
aF0.0060000000000000001
aF0.0040000000000000001
aF0.0040000000000000001
aF0.0030000000000000001
aF0.0040000000000000001
aF0.0030000000000000001
aF0.001
aF0.0050000000000000001
aF0.002
asS'TGF'
p32
(lp33
F0.0
aF0.001
aF0.017000000000000001
aF0.107
aF0.216
aF0.25
aF0.23999999999999999
aF0.23000000000000001
aF0.23300000000000001
aF0.21099999999999999
aF0.19900000000000001
aF0.20799999999999999
aF0.186
aF0.14599999999999999
aF0.13900000000000001
aF0.13600000000000001
aF0.13400000000000001
aF0.124
aF0.125
aF0.127
aF0.111
aF0.114
aF0.108
aF0.106
aF0.104
aF0.098000000000000004
aF0.082000000000000003
aF0.078
aF0.070000000000000007
aF0.071999999999999995
aF0.060999999999999999
aF0.060999999999999999
aF0.075999999999999998
aF0.064000000000000001
aF0.064000000000000001
aF0.060999999999999999
aF0.055
aF0.034000000000000002
aF0.041000000000000002
aF0.042999999999999997
aF0.042000000000000003
aF0.044999999999999998
aF0.045999999999999999
aF0.041000000000000002
aF0.035000000000000003
aF0.027
aF0.033000000000000002
aF0.032000000000000001
aF0.029999999999999999
aF0.024
aF0.028000000000000001
aF0.02
aF0.02
aF0.019
aF0.014999999999999999
aF0.02
aF0.02
aF0.014999999999999999
aF0.014
aF0.012999999999999999
aF0.014
aF0.016
aF0.014
aF0.012
aF0.012
aF0.0089999999999999993
aF0.0089999999999999993
aF0.012
aF0.0089999999999999993
aF0.010999999999999999
aF0.010999999999999999
aF0.014
aF0.01
aF0.0080000000000000002
aF0.0070000000000000001
aF0.0050000000000000001
aF0.0030000000000000001
aF0.0070000000000000001
aF0.0060000000000000001
aF0.0089999999999999993
aF0.0080000000000000002
aF0.0089999999999999993
aF0.0080000000000000002
aF0.0080000000000000002
aF0.0070000000000000001
aF0.0070000000000000001
aF0.0050000000000000001
aF0.0060000000000000001
aF0.0060000000000000001
aF0.0080000000000000002
aF0.0070000000000000001
aF0.0050000000000000001
aF0.0040000000000000001
aF0.0040000000000000001
aF0.0050000000000000001
aF0.0060000000000000001
aF0.0050000000000000001
aF0.002
aF0.001
aF0.0030000000000000001
aF0.0030000000000000001
asS'FasL'
p34
(lp35
F0.0
aF0.0
aF0.045999999999999999
aF0.20899999999999999
aF0.30199999999999999
aF0.33800000000000002
aF0.33700000000000002
aF0.35499999999999998
aF0.38100000000000001
aF0.36499999999999999
aF0.36299999999999999
aF0.36299999999999999
aF0.33800000000000002
aF0.32800000000000001
aF0.318
aF0.311
aF0.314
aF0.308
aF0.32000000000000001
aF0.32000000000000001
aF0.28999999999999998
aF0.30099999999999999
aF0.28499999999999998
aF0.28999999999999998
aF0.25900000000000001
aF0.246
aF0.26100000000000001
aF0.24299999999999999
aF0.23799999999999999
aF0.23999999999999999
aF0.23100000000000001
aF0.22500000000000001
aF0.223
aF0.214
aF0.245
aF0.224
aF0.20699999999999999
aF0.20200000000000001
aF0.20300000000000001
aF0.19600000000000001
aF0.19700000000000001
aF0.20200000000000001
aF0.186
aF0.183
aF0.17799999999999999
aF0.18099999999999999
aF0.16900000000000001
aF0.187
aF0.16900000000000001
aF0.155
aF0.13900000000000001
aF0.13800000000000001
aF0.13400000000000001
aF0.13200000000000001
aF0.126
aF0.13200000000000001
aF0.128
aF0.114
aF0.105
aF0.112
aF0.11600000000000001
aF0.11899999999999999
aF0.11
aF0.091999999999999998
aF0.092999999999999999
aF0.086999999999999994
aF0.086999999999999994
aF0.081000000000000003
aF0.080000000000000002
aF0.083000000000000004
aF0.090999999999999998
aF0.076999999999999999
aF0.073999999999999996
aF0.069000000000000006
aF0.063
aF0.063
aF0.050999999999999997
aF0.059999999999999998
aF0.057000000000000002
aF0.060999999999999999
aF0.064000000000000001
aF0.063
aF0.058999999999999997
aF0.058999999999999997
aF0.050000000000000003
aF0.052999999999999999
aF0.052999999999999999
aF0.059999999999999998
aF0.058999999999999997
aF0.059999999999999998
aF0.051999999999999998
aF0.044999999999999998
aF0.049000000000000002
aF0.050000000000000003
aF0.052999999999999999
aF0.052999999999999999
aF0.044999999999999998
aF0.039
aF0.045999999999999999
aF0.036999999999999998
aF0.034000000000000002
asS'SOCS'
p36
(lp37
F0.0
aF0.0
aF0.0
aF0.002
aF0.010999999999999999
aF0.033000000000000002
aF0.056000000000000001
aF0.058999999999999997
aF0.058000000000000003
aF0.056000000000000001
aF0.060999999999999999
aF0.078
aF0.070000000000000007
aF0.064000000000000001
aF0.051999999999999998
aF0.041000000000000002
aF0.047
aF0.042999999999999997
aF0.042000000000000003
aF0.050000000000000003
aF0.059999999999999998
aF0.049000000000000002
aF0.034000000000000002
aF0.042999999999999997
aF0.050000000000000003
aF0.050000000000000003
aF0.048000000000000001
aF0.040000000000000001
aF0.042000000000000003
aF0.040000000000000001
aF0.034000000000000002
aF0.032000000000000001
aF0.036999999999999998
aF0.035000000000000003
aF0.034000000000000002
aF0.036999999999999998
aF0.039
aF0.048000000000000001
aF0.036999999999999998
aF0.029000000000000001
aF0.034000000000000002
aF0.029000000000000001
aF0.037999999999999999
aF0.025000000000000001
aF0.039
aF0.025999999999999999
aF0.025000000000000001
aF0.024
aF0.032000000000000001
aF0.02
aF0.025000000000000001
aF0.025999999999999999
aF0.021000000000000001
aF0.02
aF0.025999999999999999
aF0.02
aF0.023
aF0.017999999999999999
aF0.017000000000000001
aF0.021999999999999999
aF0.014
aF0.016
aF0.021999999999999999
aF0.019
aF0.016
aF0.01
aF0.0070000000000000001
aF0.012999999999999999
aF0.014
aF0.0070000000000000001
aF0.014
aF0.014
aF0.017999999999999999
aF0.012999999999999999
aF0.012999999999999999
aF0.0080000000000000002
aF0.0060000000000000001
aF0.0060000000000000001
aF0.0070000000000000001
aF0.0089999999999999993
aF0.010999999999999999
aF0.0030000000000000001
aF0.014
aF0.010999999999999999
aF0.010999999999999999
aF0.010999999999999999
aF0.0070000000000000001
aF0.0050000000000000001
aF0.0040000000000000001
aF0.01
aF0.0060000000000000001
aF0.0030000000000000001
aF0.016
aF0.0089999999999999993
aF0.0040000000000000001
aF0.0080000000000000002
aF0.010999999999999999
aF0.0089999999999999993
aF0.0040000000000000001
aF0.0060000000000000001
aF0.0080000000000000002
asS'NFAT'
p38
(lp39
F0.0
aF0.0050000000000000001
aF0.108
aF0.252
aF0.20100000000000001
aF0.19
aF0.23100000000000001
aF0.20899999999999999
aF0.224
aF0.20799999999999999
aF0.20499999999999999
aF0.19
aF0.192
aF0.20499999999999999
aF0.17299999999999999
aF0.17299999999999999
aF0.187
aF0.20200000000000001
aF0.16600000000000001
aF0.16500000000000001
aF0.16600000000000001
aF0.17199999999999999
aF0.16700000000000001
aF0.16200000000000001
aF0.14599999999999999
aF0.13600000000000001
aF0.13300000000000001
aF0.13800000000000001
aF0.13200000000000001
aF0.13200000000000001
aF0.13900000000000001
aF0.13300000000000001
aF0.14399999999999999
aF0.14899999999999999
aF0.14000000000000001
aF0.11600000000000001
aF0.11799999999999999
aF0.123
aF0.113
aF0.10299999999999999
aF0.123
aF0.113
aF0.112
aF0.099000000000000005
aF0.094
aF0.094
aF0.088999999999999996
aF0.095000000000000001
aF0.088999999999999996
aF0.085999999999999993
aF0.074999999999999997
aF0.081000000000000003
aF0.085000000000000006
aF0.070000000000000007
aF0.082000000000000003
aF0.069000000000000006
aF0.064000000000000001
aF0.065000000000000002
aF0.068000000000000005
aF0.069000000000000006
aF0.070000000000000007
aF0.058000000000000003
aF0.052999999999999999
aF0.052999999999999999
aF0.042000000000000003
aF0.037999999999999999
aF0.044999999999999998
aF0.050000000000000003
aF0.044999999999999998
aF0.050000000000000003
aF0.050999999999999997
aF0.042000000000000003
aF0.033000000000000002
aF0.031
aF0.031
aF0.033000000000000002
aF0.035000000000000003
aF0.034000000000000002
aF0.035999999999999997
aF0.035000000000000003
aF0.035999999999999997
aF0.033000000000000002
aF0.029999999999999999
aF0.025000000000000001
aF0.025999999999999999
aF0.031
aF0.029000000000000001
aF0.033000000000000002
aF0.028000000000000001
aF0.034000000000000002
aF0.028000000000000001
aF0.024
aF0.033000000000000002
aF0.034000000000000002
aF0.028000000000000001
aF0.031
aF0.021000000000000001
aF0.02
aF0.023
aF0.019
aF0.017999999999999999
asS'Ras'
p40
(lp41
F0.0
aF0.033000000000000002
aF0.224
aF0.23599999999999999
aF0.20599999999999999
aF0.22900000000000001
aF0.26700000000000002
aF0.252
aF0.22500000000000001
aF0.223
aF0.23400000000000001
aF0.19500000000000001
aF0.20799999999999999
aF0.20499999999999999
aF0.19900000000000001
aF0.19700000000000001
aF0.23100000000000001
aF0.19700000000000001
aF0.19800000000000001
aF0.18099999999999999
aF0.20100000000000001
aF0.17899999999999999
aF0.17699999999999999
aF0.16200000000000001
aF0.14599999999999999
aF0.16
aF0.128
aF0.14999999999999999
aF0.14899999999999999
aF0.154
aF0.13800000000000001
aF0.13900000000000001
aF0.159
aF0.16300000000000001
aF0.122
aF0.123
aF0.13
aF0.11600000000000001
aF0.112
aF0.13700000000000001
aF0.13500000000000001
aF0.12
aF0.10299999999999999
aF0.108
aF0.104
aF0.097000000000000003
aF0.10100000000000001
aF0.106
aF0.097000000000000003
aF0.091999999999999998
aF0.094
aF0.081000000000000003
aF0.076999999999999999
aF0.086999999999999994
aF0.081000000000000003
aF0.059999999999999998
aF0.068000000000000005
aF0.073999999999999996
aF0.070999999999999994
aF0.073999999999999996
aF0.073999999999999996
aF0.063
aF0.057000000000000002
aF0.053999999999999999
aF0.050000000000000003
aF0.050000000000000003
aF0.043999999999999997
aF0.057000000000000002
aF0.045999999999999999
aF0.050999999999999997
aF0.052999999999999999
aF0.044999999999999998
aF0.034000000000000002
aF0.029999999999999999
aF0.035000000000000003
aF0.044999999999999998
aF0.042999999999999997
aF0.042000000000000003
aF0.035000000000000003
aF0.043999999999999997
aF0.035000000000000003
aF0.035999999999999997
aF0.029000000000000001
aF0.029000000000000001
aF0.029000000000000001
aF0.032000000000000001
aF0.035999999999999997
aF0.039
aF0.029999999999999999
aF0.034000000000000002
aF0.025999999999999999
aF0.029000000000000001
aF0.032000000000000001
aF0.032000000000000001
aF0.029999999999999999
aF0.029000000000000001
aF0.025000000000000001
aF0.025000000000000001
aF0.025000000000000001
aF0.021000000000000001
aF0.021000000000000001
asS'CTLA4'
p42
(lp43
F0.0
aF0.505
aF0.745
aF0.23699999999999999
aF0.63600000000000001
aF0.48099999999999998
aF0.46700000000000003
aF0.54800000000000004
aF0.48499999999999999
aF0.502
aF0.48099999999999998
aF0.46899999999999997
aF0.48699999999999999
aF0.436
aF0.44500000000000001
aF0.45400000000000001
aF0.432
aF0.42499999999999999
aF0.40799999999999997
aF0.40300000000000002
aF0.40200000000000002
aF0.39700000000000002
aF0.38
aF0.371
aF0.36499999999999999
aF0.34799999999999998
aF0.35499999999999998
aF0.317
aF0.33000000000000002
aF0.32000000000000001
aF0.307
aF0.30599999999999999
aF0.28000000000000003
aF0.315
aF0.29199999999999998
aF0.27500000000000002
aF0.27200000000000002
aF0.27100000000000002
aF0.245
aF0.26700000000000002
aF0.23499999999999999
aF0.23000000000000001
aF0.24199999999999999
aF0.23200000000000001
aF0.216
aF0.218
aF0.19900000000000001
aF0.21099999999999999
aF0.19800000000000001
aF0.19
aF0.19400000000000001
aF0.18099999999999999
aF0.182
aF0.17399999999999999
aF0.17000000000000001
aF0.155
aF0.14999999999999999
aF0.16500000000000001
aF0.14299999999999999
aF0.157
aF0.13800000000000001
aF0.13900000000000001
aF0.14000000000000001
aF0.127
aF0.14199999999999999
aF0.11799999999999999
aF0.121
aF0.11899999999999999
aF0.108
aF0.112
aF0.098000000000000004
aF0.10199999999999999
aF0.10199999999999999
aF0.095000000000000001
aF0.10000000000000001
aF0.080000000000000002
aF0.098000000000000004
aF0.090999999999999998
aF0.085999999999999993
aF0.075999999999999998
aF0.092999999999999999
aF0.078
aF0.079000000000000001
aF0.078
aF0.074999999999999997
aF0.075999999999999998
aF0.067000000000000004
aF0.069000000000000006
aF0.074999999999999997
aF0.066000000000000003
aF0.063
aF0.074999999999999997
aF0.053999999999999999
aF0.057000000000000002
aF0.070999999999999994
aF0.060999999999999999
aF0.058999999999999997
aF0.053999999999999999
aF0.056000000000000001
aF0.049000000000000002
aF0.056000000000000001
asS'sFas'
p44
(lp45
F0.0
aF0.0
aF0.0
aF0.0
aF0.0
aF0.0
aF0.0
aF0.0
aF0.0
aF0.0
aF0.0
aF0.0
aF0.0
aF0.0
aF0.0
aF0.0
aF0.0
aF0.0
aF0.0
aF0.0
aF0.0
aF0.0
aF0.0
aF0.0
aF0.0
aF0.0
aF0.0
aF0.0
aF0.0
aF0.0
aF0.0
aF0.0
aF0.0
aF0.0
aF0.0
aF0.0
aF0.0
aF0.0
aF0.0
aF0.0
aF0.0
aF0.0
aF0.0
aF0.0
aF0.0
aF0.0
aF0.0
aF0.0
aF0.0
aF0.0
aF0.0
aF0.0
aF0.0
aF0.0
aF0.0
aF0.0
aF0.0
aF0.0
aF0.0
aF0.0
aF0.0
aF0.0
aF0.0
aF0.0
aF0.0
aF0.0
aF0.0
aF0.0
aF0.0
aF0.0
aF0.0
aF0.0
aF0.0
aF0.0
aF0.0
aF0.0
aF0.0
aF0.0
aF0.0
aF0.0
aF0.0
aF0.0
aF0.0
aF0.0
aF0.0
aF0.0
aF0.0
aF0.0
aF0.0
aF0.0
aF0.0
aF0.0
aF0.0
aF0.0
aF0.0
aF0.0
aF0.0
aF0.0
aF0.0
aF0.0
aF0.0
asS'CSK'
p46
(lp47
F0.0
aF0.48899999999999999
aF0.67500000000000004
aF0.32700000000000001
aF0.58699999999999997
aF0.50800000000000001
aF0.46500000000000002
aF0.53200000000000003
aF0.47399999999999998
aF0.48899999999999999
aF0.48999999999999999
aF0.48299999999999998
aF0.49199999999999999
aF0.45500000000000002
aF0.45400000000000001
aF0.45700000000000002
aF0.45200000000000001
aF0.44700000000000001
aF0.40300000000000002
aF0.39700000000000002
aF0.39200000000000002
aF0.42099999999999999
aF0.38
aF0.35799999999999998
aF0.35099999999999998
aF0.35599999999999998
aF0.35599999999999998
aF0.313
aF0.34599999999999997
aF0.317
aF0.29999999999999999
aF0.28999999999999998
aF0.29099999999999998
aF0.32200000000000001
aF0.28499999999999998
aF0.27000000000000002
aF0.27400000000000002
aF0.26700000000000002
aF0.23599999999999999
aF0.25800000000000001
aF0.24099999999999999
aF0.253
aF0.23999999999999999
aF0.22900000000000001
aF0.223
aF0.21199999999999999
aF0.20499999999999999
aF0.218
aF0.19
aF0.20200000000000001
aF0.189
aF0.17000000000000001
aF0.17799999999999999
aF0.17499999999999999
aF0.17299999999999999
aF0.158
aF0.14499999999999999
aF0.16200000000000001
aF0.13300000000000001
aF0.14799999999999999
aF0.13800000000000001
aF0.13700000000000001
aF0.13400000000000001
aF0.14000000000000001
aF0.14299999999999999
aF0.11799999999999999
aF0.11600000000000001
aF0.11799999999999999
aF0.11
aF0.114
aF0.105
aF0.109
aF0.095000000000000001
aF0.095000000000000001
aF0.091999999999999998
aF0.088999999999999996
aF0.104
aF0.085999999999999993
aF0.084000000000000005
aF0.083000000000000004
aF0.085999999999999993
aF0.072999999999999995
aF0.072999999999999995
aF0.088999999999999996
aF0.071999999999999995
aF0.070000000000000007
aF0.076999999999999999
aF0.070000000000000007
aF0.074999999999999997
aF0.065000000000000002
aF0.069000000000000006
aF0.070000000000000007
aF0.057000000000000002
aF0.057000000000000002
aF0.065000000000000002
aF0.062
aF0.056000000000000001
aF0.055
aF0.058000000000000003
aF0.045999999999999999
aF0.048000000000000001
asS'PI3K'
p48
(lp49
F0.0
aF0.0080000000000000002
aF0.122
aF0.24299999999999999
aF0.221
aF0.20599999999999999
aF0.23200000000000001
aF0.26100000000000001
aF0.23200000000000001
aF0.222
aF0.217
aF0.20999999999999999
aF0.19900000000000001
aF0.21299999999999999
aF0.184
aF0.191
aF0.20100000000000001
aF0.217
aF0.20000000000000001
aF0.188
aF0.20499999999999999
aF0.17799999999999999
aF0.17299999999999999
aF0.17100000000000001
aF0.14399999999999999
aF0.17000000000000001
aF0.14299999999999999
aF0.14099999999999999
aF0.153
aF0.159
aF0.14099999999999999
aF0.13700000000000001
aF0.14499999999999999
aF0.14799999999999999
aF0.13800000000000001
aF0.10299999999999999
aF0.122
aF0.122
aF0.113
aF0.112
aF0.13600000000000001
aF0.126
aF0.11799999999999999
aF0.10100000000000001
aF0.108
aF0.104
aF0.10199999999999999
aF0.098000000000000004
aF0.107
aF0.082000000000000003
aF0.095000000000000001
aF0.085999999999999993
aF0.079000000000000001
aF0.078
aF0.084000000000000005
aF0.079000000000000001
aF0.060999999999999999
aF0.062
aF0.069000000000000006
aF0.070999999999999994
aF0.073999999999999996
aF0.064000000000000001
aF0.058000000000000003
aF0.062
aF0.052999999999999999
aF0.055
aF0.050000000000000003
aF0.047
aF0.050999999999999997
aF0.053999999999999999
aF0.058000000000000003
aF0.048000000000000001
aF0.044999999999999998
aF0.029000000000000001
aF0.023
aF0.036999999999999998
aF0.040000000000000001
aF0.043999999999999997
aF0.035000000000000003
aF0.042000000000000003
aF0.039
aF0.027
aF0.031
aF0.025000000000000001
aF0.029000000000000001
aF0.029999999999999999
aF0.029999999999999999
aF0.029999999999999999
aF0.031
aF0.032000000000000001
aF0.028000000000000001
aF0.023
aF0.031
aF0.029999999999999999
aF0.031
aF0.033000000000000002
aF0.02
aF0.021000000000000001
aF0.024
aF0.021999999999999999
aF0.021000000000000001
asS'CD45'
p50
(lp51
F0.0
aF0.0
aF0.0
aF0.0
aF0.0
aF0.0
aF0.0
aF0.0
aF0.0
aF0.0
aF0.0
aF0.0
aF0.0
aF0.0
aF0.0
aF0.0
aF0.0
aF0.0
aF0.0
aF0.0
aF0.0
aF0.0
aF0.0
aF0.0
aF0.0
aF0.0
aF0.0
aF0.0
aF0.0
aF0.0
aF0.0
aF0.0
aF0.0
aF0.0
aF0.0
aF0.0
aF0.0
aF0.0
aF0.0
aF0.0
aF0.0
aF0.0
aF0.0
aF0.0
aF0.0
aF0.0
aF0.0
aF0.0
aF0.0
aF0.0
aF0.0
aF0.0
aF0.0
aF0.0
aF0.0
aF0.0
aF0.0
aF0.0
aF0.0
aF0.0
aF0.0
aF0.0
aF0.0
aF0.0
aF0.0
aF0.0
aF0.0
aF0.0
aF0.0
aF0.0
aF0.0
aF0.0
aF0.0
aF0.0
aF0.0
aF0.0
aF0.0
aF0.0
aF0.0
aF0.0
aF0.0
aF0.0
aF0.0
aF0.0
aF0.0
aF0.0
aF0.0
aF0.0
aF0.0
aF0.0
aF0.0
aF0.0
aF0.0
aF0.0
aF0.0
aF0.0
aF0.0
aF0.0
aF0.0
aF0.0
aF0.0
asS'Stimuli'
p52
(lp53
F1.0
aF1.0
aF1.0
aF1.0
aF1.0
aF1.0
aF1.0
aF1.0
aF1.0
aF1.0
aF1.0
aF1.0
aF1.0
aF1.0
aF1.0
aF1.0
aF1.0
aF1.0
aF1.0
aF1.0
aF1.0
aF1.0
aF1.0
aF1.0
aF1.0
aF1.0
aF1.0
aF1.0
aF1.0
aF1.0
aF1.0
aF1.0
aF1.0
aF1.0
aF1.0
aF1.0
aF1.0
aF1.0
aF1.0
aF1.0
aF1.0
aF1.0
aF1.0
aF1.0
aF1.0
aF1.0
aF1.0
aF1.0
aF1.0
aF1.0
aF1.0
aF1.0
aF1.0
aF1.0
aF1.0
aF1.0
aF1.0
aF1.0
aF1.0
aF1.0
aF1.0
aF1.0
aF1.0
aF1.0
aF1.0
aF1.0
aF1.0
aF1.0
aF1.0
aF1.0
aF1.0
aF1.0
aF1.0
aF1.0
aF1.0
aF1.0
aF1.0
aF1.0
aF1.0
aF1.0
aF1.0
aF1.0
aF1.0
aF1.0
aF1.0
aF1.0
aF1.0
aF1.0
aF1.0
aF1.0
aF1.0
aF1.0
aF1.0
aF1.0
aF1.0
aF1.0
aF1.0
aF1.0
aF1.0
aF1.0
aF1.0
asS'Flip'
p54
(lp55
F0.0
aF0.0
aF0.0
aF0.0
aF0.002
aF0.012999999999999999
aF0.016
aF0.02
aF0.028000000000000001
aF0.029999999999999999
aF0.025999999999999999
aF0.027
aF0.025000000000000001
aF0.024
aF0.016
aF0.017000000000000001
aF0.017999999999999999
aF0.012999999999999999
aF0.012999999999999999
aF0.012
aF0.014999999999999999
aF0.014999999999999999
aF0.0089999999999999993
aF0.0089999999999999993
aF0.012
aF0.010999999999999999
aF0.012
aF0.014
aF0.017000000000000001
aF0.010999999999999999
aF0.012999999999999999
aF0.012
aF0.012
aF0.010999999999999999
aF0.0080000000000000002
aF0.0040000000000000001
aF0.0060000000000000001
aF0.0060000000000000001
aF0.0080000000000000002
aF0.0070000000000000001
aF0.0030000000000000001
aF0.0040000000000000001
aF0.001
aF0.0060000000000000001
aF0.0070000000000000001
aF0.0040000000000000001
aF0.01
aF0.0080000000000000002
aF0.0030000000000000001
aF0.0040000000000000001
aF0.0030000000000000001
aF0.0060000000000000001
aF0.0040000000000000001
aF0.0040000000000000001
aF0.0050000000000000001
aF0.0040000000000000001
aF0.0060000000000000001
aF0.0030000000000000001
aF0.002
aF0.002
aF0.0040000000000000001
aF0.002
aF0.001
aF0.002
aF0.001
aF0.0
aF0.001
aF0.0030000000000000001
aF0.0030000000000000001
aF0.001
aF0.0
aF0.0040000000000000001
aF0.0030000000000000001
aF0.002
aF0.0050000000000000001
aF0.0030000000000000001
aF0.0
aF0.001
aF0.002
aF0.001
aF0.0
aF0.001
aF0.0
aF0.001
aF0.0
aF0.001
aF0.001
aF0.002
aF0.002
aF0.0
aF0.0
aF0.0
aF0.001
aF0.002
aF0.001
aF0.0
aF0.0
aF0.002
aF0.001
aF0.0
aF0.0
asS'TNF'
p56
(lp57
F0.0
aF0.0
aF0.0
aF0.0
aF0.002
aF0.0040000000000000001
aF0.016
aF0.021000000000000001
aF0.033000000000000002
aF0.037999999999999999
aF0.025999999999999999
aF0.029999999999999999
aF0.025000000000000001
aF0.021999999999999999
aF0.025999999999999999
aF0.025999999999999999
aF0.021999999999999999
aF0.024
aF0.025999999999999999
aF0.034000000000000002
aF0.028000000000000001
aF0.028000000000000001
aF0.025000000000000001
aF0.025000000000000001
aF0.025000000000000001
aF0.017000000000000001
aF0.028000000000000001
aF0.027
aF0.027
aF0.025000000000000001
aF0.027
aF0.025999999999999999
aF0.024
aF0.025000000000000001
aF0.019
aF0.017000000000000001
aF0.017000000000000001
aF0.025999999999999999
aF0.019
aF0.021000000000000001
aF0.01
aF0.017999999999999999
aF0.023
aF0.021999999999999999
aF0.014
aF0.016
aF0.012
aF0.016
aF0.014
aF0.017999999999999999
aF0.017000000000000001
aF0.014999999999999999
aF0.012999999999999999
aF0.014999999999999999
aF0.019
aF0.0089999999999999993
aF0.014999999999999999
aF0.017999999999999999
aF0.01
aF0.012
aF0.012999999999999999
aF0.012
aF0.010999999999999999
aF0.012999999999999999
aF0.014
aF0.0089999999999999993
aF0.0089999999999999993
aF0.0089999999999999993
aF0.0080000000000000002
aF0.0050000000000000001
aF0.010999999999999999
aF0.010999999999999999
aF0.010999999999999999
aF0.01
aF0.0050000000000000001
aF0.0030000000000000001
aF0.0060000000000000001
aF0.0070000000000000001
aF0.0040000000000000001
aF0.0060000000000000001
aF0.0060000000000000001
aF0.0050000000000000001
aF0.0030000000000000001
aF0.0060000000000000001
aF0.0040000000000000001
aF0.0060000000000000001
aF0.0050000000000000001
aF0.0030000000000000001
aF0.001
aF0.002
aF0.0040000000000000001
aF0.0040000000000000001
aF0.0030000000000000001
aF0.0080000000000000002
aF0.0050000000000000001
aF0.0089999999999999993
aF0.0060000000000000001
aF0.0030000000000000001
aF0.0030000000000000001
aF0.001
aF0.0030000000000000001
asS'JAK'
p58
(lp59
F0.0
aF0.0
aF0.0
aF0.017000000000000001
aF0.065000000000000002
aF0.115
aF0.12
aF0.112
aF0.123
aF0.129
aF0.13200000000000001
aF0.129
aF0.121
aF0.11
aF0.089999999999999997
aF0.092999999999999999
aF0.10100000000000001
aF0.107
aF0.11899999999999999
aF0.121
aF0.106
aF0.092999999999999999
aF0.106
aF0.106
aF0.108
aF0.094
aF0.084000000000000005
aF0.091999999999999998
aF0.080000000000000002
aF0.086999999999999994
aF0.070999999999999994
aF0.075999999999999998
aF0.082000000000000003
aF0.085000000000000006
aF0.095000000000000001
aF0.096000000000000002
aF0.10100000000000001
aF0.066000000000000003
aF0.056000000000000001
aF0.072999999999999995
aF0.074999999999999997
aF0.068000000000000005
aF0.069000000000000006
aF0.074999999999999997
aF0.074999999999999997
aF0.058000000000000003
aF0.058000000000000003
aF0.060999999999999999
aF0.053999999999999999
aF0.051999999999999998
aF0.047
aF0.049000000000000002
aF0.049000000000000002
aF0.053999999999999999
aF0.049000000000000002
aF0.048000000000000001
aF0.045999999999999999
aF0.044999999999999998
aF0.040000000000000001
aF0.043999999999999997
aF0.043999999999999997
aF0.042999999999999997
aF0.039
aF0.035999999999999997
aF0.027
aF0.031
aF0.029999999999999999
aF0.021999999999999999
aF0.025000000000000001
aF0.024
aF0.036999999999999998
aF0.034000000000000002
aF0.029999999999999999
aF0.024
aF0.012999999999999999
aF0.017999999999999999
aF0.010999999999999999
aF0.016
aF0.02
aF0.02
aF0.021000000000000001
aF0.024
aF0.021999999999999999
aF0.021999999999999999
aF0.017000000000000001
aF0.010999999999999999
aF0.010999999999999999
aF0.010999999999999999
aF0.021000000000000001
aF0.021000000000000001
aF0.019
aF0.027
aF0.025000000000000001
aF0.017000000000000001
aF0.017000000000000001
aF0.023
aF0.019
aF0.014
aF0.017999999999999999
aF0.019
aF0.014
asS'SMAD'
p60
(lp61
F0.0
aF0.0
aF0.0040000000000000001
aF0.039
aF0.13100000000000001
aF0.124
aF0.14299999999999999
aF0.13900000000000001
aF0.128
aF0.109
aF0.115
aF0.111
aF0.107
aF0.087999999999999995
aF0.071999999999999995
aF0.068000000000000005
aF0.072999999999999995
aF0.070000000000000007
aF0.070000000000000007
aF0.073999999999999996
aF0.067000000000000004
aF0.057000000000000002
aF0.067000000000000004
aF0.053999999999999999
aF0.063
aF0.059999999999999998
aF0.043999999999999997
aF0.043999999999999997
aF0.045999999999999999
aF0.035999999999999997
aF0.035999999999999997
aF0.032000000000000001
aF0.044999999999999998
aF0.032000000000000001
aF0.035999999999999997
aF0.040000000000000001
aF0.031
aF0.019
aF0.025000000000000001
aF0.021999999999999999
aF0.017999999999999999
aF0.028000000000000001
aF0.024
aF0.024
aF0.021000000000000001
aF0.02
aF0.012999999999999999
aF0.021000000000000001
aF0.012999999999999999
aF0.010999999999999999
aF0.017000000000000001
aF0.012
aF0.012999999999999999
aF0.0080000000000000002
aF0.012
aF0.0060000000000000001
aF0.014
aF0.012
aF0.0050000000000000001
aF0.010999999999999999
aF0.0089999999999999993
aF0.0070000000000000001
aF0.0070000000000000001
aF0.0080000000000000002
aF0.0050000000000000001
aF0.0050000000000000001
aF0.0040000000000000001
aF0.0030000000000000001
aF0.0070000000000000001
aF0.0040000000000000001
aF0.0080000000000000002
aF0.0089999999999999993
aF0.0060000000000000001
aF0.0040000000000000001
aF0.0030000000000000001
aF0.0040000000000000001
aF0.001
aF0.0030000000000000001
aF0.0040000000000000001
aF0.0050000000000000001
aF0.0060000000000000001
aF0.002
aF0.0070000000000000001
aF0.0030000000000000001
aF0.0050000000000000001
aF0.0050000000000000001
aF0.001
aF0.0040000000000000001
aF0.002
aF0.0050000000000000001
aF0.0030000000000000001
aF0.0030000000000000001
aF0.0030000000000000001
aF0.002
aF0.0030000000000000001
aF0.002
aF0.0040000000000000001
aF0.0
aF0.001
aF0.002
aF0.002
asS'PIAS'
p62
(lp63
F1.0
aF1.0
aF1.0
aF0.998
aF0.97999999999999998
aF0.94699999999999995
aF0.89800000000000002
aF0.88400000000000001
aF0.878
aF0.877
aF0.85299999999999998
aF0.83699999999999997
aF0.81899999999999995
aF0.80500000000000005
aF0.78300000000000003
aF0.78300000000000003
aF0.77700000000000002
aF0.745
aF0.72199999999999998
aF0.69699999999999995
aF0.68100000000000005
aF0.66900000000000004
aF0.65700000000000003
aF0.63600000000000001
aF0.61699999999999999
aF0.60199999999999998
aF0.59699999999999998
aF0.59199999999999997
aF0.56899999999999995
aF0.56499999999999995
aF0.55400000000000005
aF0.54100000000000004
aF0.52900000000000003
aF0.50700000000000001
aF0.496
aF0.47099999999999997
aF0.45600000000000002
aF0.437
aF0.44600000000000001
aF0.45500000000000002
aF0.42899999999999999
aF0.40699999999999997
aF0.39400000000000002
aF0.38300000000000001
aF0.372
aF0.377
aF0.35899999999999999
aF0.35499999999999998
aF0.34000000000000002
aF0.33300000000000002
aF0.33000000000000002
aF0.32400000000000001
aF0.311
aF0.30299999999999999
aF0.29199999999999998
aF0.27700000000000002
aF0.27200000000000002
aF0.26200000000000001
aF0.254
aF0.249
aF0.246
aF0.23300000000000001
aF0.22600000000000001
aF0.22600000000000001
aF0.221
aF0.215
aF0.20899999999999999
aF0.20200000000000001
aF0.20100000000000001
aF0.191
aF0.184
aF0.17399999999999999
aF0.17199999999999999
aF0.16900000000000001
aF0.16800000000000001
aF0.16800000000000001
aF0.16600000000000001
aF0.16
aF0.158
aF0.14799999999999999
aF0.14399999999999999
aF0.14099999999999999
aF0.13200000000000001
aF0.13200000000000001
aF0.127
aF0.127
aF0.13
aF0.125
aF0.124
aF0.11700000000000001
aF0.112
aF0.104
aF0.10100000000000001
aF0.104
aF0.104
aF0.10199999999999999
aF0.091999999999999998
aF0.090999999999999998
aF0.095000000000000001
aF0.087999999999999995
aF0.087999999999999995
asS'BclxL'
p64
(lp65
F1.0
aF0.0
aF0.0
aF0.0
aF0.001
aF0.0030000000000000001
aF0.002
aF0.0030000000000000001
aF0.01
aF0.0060000000000000001
aF0.014
aF0.01
aF0.012999999999999999
aF0.0050000000000000001
aF0.0040000000000000001
aF0.0070000000000000001
aF0.0089999999999999993
aF0.0040000000000000001
aF0.0030000000000000001
aF0.0030000000000000001
aF0.0040000000000000001
aF0.0030000000000000001
aF0.0
aF0.0050000000000000001
aF0.002
aF0.0050000000000000001
aF0.001
aF0.0040000000000000001
aF0.002
aF0.0030000000000000001
aF0.0050000000000000001
aF0.0050000000000000001
aF0.002
aF0.0040000000000000001
aF0.001
aF0.0
aF0.0
aF0.001
aF0.0040000000000000001
aF0.0
aF0.0
aF0.002
aF0.001
aF0.001
aF0.0030000000000000001
aF0.001
aF0.001
aF0.001
aF0.001
aF0.001
aF0.001
aF0.0
aF0.002
aF0.001
aF0.002
aF0.002
aF0.001
aF0.0
aF0.001
aF0.002
aF0.001
aF0.0
aF0.0
aF0.0
aF0.0
aF0.001
aF0.0
aF0.0
aF0.001
aF0.0
aF0.001
aF0.002
aF0.002
aF0.001
aF0.0
aF0.0
aF0.0
aF0.0
aF0.0
aF0.0
aF0.001
aF0.0
aF0.0
aF0.0
aF0.0
aF0.0
aF0.0
aF0.002
aF0.001
aF0.0
aF0.0
aF0.0
aF0.001
aF0.001
aF0.0
aF0.0
aF0.0
aF0.0
aF0.0
aF0.0
aF0.0
asS'IFNT'
p66
(lp67
F0.0
aF0.0
aF0.0
aF0.0070000000000000001
aF0.034000000000000002
aF0.088999999999999996
aF0.124
aF0.11700000000000001
aF0.123
aF0.127
aF0.128
aF0.123
aF0.11799999999999999
aF0.112
aF0.097000000000000003
aF0.096000000000000002
aF0.098000000000000004
aF0.104
aF0.10199999999999999
aF0.12
aF0.12
aF0.098000000000000004
aF0.099000000000000005
aF0.106
aF0.106
aF0.095000000000000001
aF0.087999999999999995
aF0.087999999999999995
aF0.085000000000000006
aF0.083000000000000004
aF0.073999999999999996
aF0.076999999999999999
aF0.076999999999999999
aF0.082000000000000003
aF0.097000000000000003
aF0.099000000000000005
aF0.090999999999999998
aF0.084000000000000005
aF0.063
aF0.058000000000000003
aF0.074999999999999997
aF0.067000000000000004
aF0.066000000000000003
aF0.070000000000000007
aF0.072999999999999995
aF0.062
aF0.058000000000000003
aF0.063
aF0.052999999999999999
aF0.049000000000000002
aF0.050999999999999997
aF0.049000000000000002
aF0.045999999999999999
aF0.050999999999999997
aF0.045999999999999999
aF0.043999999999999997
aF0.047
aF0.039
aF0.044999999999999998
aF0.032000000000000001
aF0.042000000000000003
aF0.044999999999999998
aF0.042000000000000003
aF0.036999999999999998
aF0.032000000000000001
aF0.029999999999999999
aF0.025999999999999999
aF0.025000000000000001
aF0.02
aF0.021000000000000001
aF0.027
aF0.033000000000000002
aF0.031
aF0.025999999999999999
aF0.02
aF0.014
aF0.012
aF0.016
aF0.016
aF0.02
aF0.017999999999999999
aF0.023
aF0.024
aF0.025000000000000001
aF0.021999999999999999
aF0.014
aF0.014
aF0.010999999999999999
aF0.016
aF0.023
aF0.023
aF0.023
aF0.025000000000000001
aF0.017000000000000001
aF0.016
aF0.017999999999999999
aF0.021999999999999999
aF0.016
aF0.014
aF0.017999999999999999
aF0.016
asS'IAP'
p68
(lp69
F1.0
aF0.0
aF0.0
aF0.0
aF0.002
aF0.0089999999999999993
aF0.025000000000000001
aF0.032000000000000001
aF0.045999999999999999
aF0.055
aF0.050999999999999997
aF0.049000000000000002
aF0.041000000000000002
aF0.034000000000000002
aF0.039
aF0.037999999999999999
aF0.034000000000000002
aF0.041000000000000002
aF0.043999999999999997
aF0.049000000000000002
aF0.051999999999999998
aF0.043999999999999997
aF0.043999999999999997
aF0.036999999999999998
aF0.036999999999999998
aF0.036999999999999998
aF0.035000000000000003
aF0.035999999999999997
aF0.035999999999999997
aF0.034000000000000002
aF0.035999999999999997
aF0.035000000000000003
aF0.036999999999999998
aF0.034000000000000002
aF0.029999999999999999
aF0.029999999999999999
aF0.029000000000000001
aF0.035000000000000003
aF0.035999999999999997
aF0.023
aF0.023
aF0.024
aF0.025000000000000001
aF0.035999999999999997
aF0.029000000000000001
aF0.023
aF0.025999999999999999
aF0.021999999999999999
aF0.023
aF0.025000000000000001
aF0.028000000000000001
aF0.023
aF0.02
aF0.023
aF0.024
aF0.019
aF0.023
aF0.02
aF0.019
aF0.016
aF0.016
aF0.014
aF0.017000000000000001
aF0.017000000000000001
aF0.02
aF0.012999999999999999
aF0.017000000000000001
aF0.012999999999999999
aF0.012999999999999999
aF0.010999999999999999
aF0.014999999999999999
aF0.014999999999999999
aF0.014999999999999999
aF0.014999999999999999
aF0.012
aF0.0060000000000000001
aF0.0060000000000000001
aF0.0070000000000000001
aF0.0060000000000000001
aF0.0080000000000000002
aF0.0080000000000000002
aF0.0060000000000000001
aF0.0050000000000000001
aF0.0070000000000000001
aF0.0089999999999999993
aF0.0089999999999999993
aF0.0089999999999999993
aF0.0080000000000000002
aF0.0050000000000000001
aF0.0030000000000000001
aF0.0040000000000000001
aF0.0080000000000000002
aF0.0080000000000000002
aF0.0089999999999999993
aF0.0050000000000000001
aF0.01
aF0.0089999999999999993
aF0.0070000000000000001
aF0.0070000000000000001
aF0.0040000000000000001
aF0.0030000000000000001
asS'Erk'
p70
(lp71
F0.0
aF0.001
aF0.048000000000000001
aF0.17199999999999999
aF0.23499999999999999
aF0.20999999999999999
aF0.21099999999999999
aF0.221
aF0.22
aF0.223
aF0.20599999999999999
aF0.20499999999999999
aF0.17899999999999999
aF0.17299999999999999
aF0.17299999999999999
aF0.182
aF0.16400000000000001
aF0.17699999999999999
aF0.186
aF0.17100000000000001
aF0.14499999999999999
aF0.158
aF0.152
aF0.14799999999999999
aF0.13300000000000001
aF0.14599999999999999
aF0.14299999999999999
aF0.127
aF0.123
aF0.13400000000000001
aF0.11899999999999999
aF0.125
aF0.11
aF0.13
aF0.14099999999999999
aF0.097000000000000003
aF0.087999999999999995
aF0.098000000000000004
aF0.099000000000000005
aF0.112
aF0.108
aF0.10199999999999999
aF0.098000000000000004
aF0.096000000000000002
aF0.088999999999999996
aF0.089999999999999997
aF0.088999999999999996
aF0.082000000000000003
aF0.087999999999999995
aF0.075999999999999998
aF0.070999999999999994
aF0.071999999999999995
aF0.072999999999999995
aF0.064000000000000001
aF0.068000000000000005
aF0.071999999999999995
aF0.062
aF0.048000000000000001
aF0.058999999999999997
aF0.060999999999999999
aF0.067000000000000004
aF0.057000000000000002
aF0.043999999999999997
aF0.034000000000000002
aF0.049000000000000002
aF0.044999999999999998
aF0.042999999999999997
aF0.039
aF0.042999999999999997
aF0.048000000000000001
aF0.055
aF0.043999999999999997
aF0.033000000000000002
aF0.031
aF0.023
aF0.029000000000000001
aF0.032000000000000001
aF0.034000000000000002
aF0.035000000000000003
aF0.036999999999999998
aF0.025000000000000001
aF0.029999999999999999
aF0.029000000000000001
aF0.025999999999999999
aF0.019
aF0.028000000000000001
aF0.025999999999999999
aF0.031
aF0.033000000000000002
aF0.028000000000000001
aF0.025000000000000001
aF0.021000000000000001
aF0.017000000000000001
aF0.023
aF0.028000000000000001
aF0.027
aF0.017999999999999999
aF0.017999999999999999
aF0.016
aF0.012999999999999999
aF0.014
asS'GZMB'
p72
(lp73
F0.0
aF0.0
aF0.0
aF0.002
aF0.0050000000000000001
aF0.034000000000000002
aF0.082000000000000003
aF0.13600000000000001
aF0.17100000000000001
aF0.214
aF0.24399999999999999
aF0.25800000000000001
aF0.29099999999999998
aF0.29099999999999998
aF0.30399999999999999
aF0.307
aF0.314
aF0.32100000000000001
aF0.32500000000000001
aF0.33500000000000002
aF0.33800000000000002
aF0.34100000000000003
aF0.33300000000000002
aF0.33300000000000002
aF0.34599999999999997
aF0.34399999999999997
aF0.35899999999999999
aF0.35899999999999999
aF0.35799999999999998
aF0.36699999999999999
aF0.35799999999999998
aF0.35499999999999998
aF0.35499999999999998
aF0.35799999999999998
aF0.35299999999999998
aF0.35199999999999998
aF0.34699999999999998
aF0.34100000000000003
aF0.33900000000000002
aF0.33800000000000002
aF0.33500000000000002
aF0.32600000000000001
aF0.31900000000000001
aF0.316
aF0.317
aF0.31900000000000001
aF0.30599999999999999
aF0.30399999999999999
aF0.29699999999999999
aF0.28899999999999998
aF0.28199999999999997
aF0.28199999999999997
aF0.27700000000000002
aF0.27100000000000002
aF0.26500000000000001
aF0.251
aF0.24399999999999999
aF0.24099999999999999
aF0.23300000000000001
aF0.23200000000000001
aF0.23000000000000001
aF0.222
aF0.215
aF0.214
aF0.21199999999999999
aF0.20000000000000001
aF0.19500000000000001
aF0.186
aF0.17999999999999999
aF0.17499999999999999
aF0.17000000000000001
aF0.16600000000000001
aF0.16400000000000001
aF0.16400000000000001
aF0.16200000000000001
aF0.155
aF0.152
aF0.14599999999999999
aF0.14299999999999999
aF0.14099999999999999
aF0.14000000000000001
aF0.13800000000000001
aF0.13600000000000001
aF0.13200000000000001
aF0.13100000000000001
aF0.129
aF0.124
aF0.122
aF0.11899999999999999
aF0.11799999999999999
aF0.115
aF0.111
aF0.11
aF0.111
aF0.107
aF0.104
aF0.099000000000000005
aF0.097000000000000003
aF0.094
aF0.090999999999999998
aF0.090999999999999998
asS'C-Myc'
p74
(lp75
F0.0
aF0.0
aF0.0
aF0.001
aF0.01
aF0.021999999999999999
aF0.057000000000000002
aF0.067000000000000004
aF0.075999999999999998
aF0.085000000000000006
aF0.088999999999999996
aF0.085999999999999993
aF0.099000000000000005
aF0.087999999999999995
aF0.078
aF0.078
aF0.066000000000000003
aF0.085000000000000006
aF0.087999999999999995
aF0.085999999999999993
aF0.10199999999999999
aF0.086999999999999994
aF0.088999999999999996
aF0.076999999999999999
aF0.081000000000000003
aF0.069000000000000006
aF0.064000000000000001
aF0.070000000000000007
aF0.070999999999999994
aF0.066000000000000003
aF0.060999999999999999
aF0.057000000000000002
aF0.062
aF0.066000000000000003
aF0.074999999999999997
aF0.069000000000000006
aF0.081000000000000003
aF0.079000000000000001
aF0.066000000000000003
aF0.050000000000000003
aF0.062
aF0.065000000000000002
aF0.064000000000000001
aF0.063
aF0.058999999999999997
aF0.062
aF0.058999999999999997
aF0.058000000000000003
aF0.058999999999999997
aF0.050000000000000003
aF0.042000000000000003
aF0.039
aF0.048000000000000001
aF0.045999999999999999
aF0.039
aF0.035999999999999997
aF0.041000000000000002
aF0.034000000000000002
aF0.033000000000000002
aF0.031
aF0.035000000000000003
aF0.042000000000000003
aF0.040000000000000001
aF0.036999999999999998
aF0.035000000000000003
aF0.028000000000000001
aF0.029000000000000001
aF0.025999999999999999
aF0.019
aF0.021999999999999999
aF0.027
aF0.025000000000000001
aF0.025000000000000001
aF0.025000000000000001
aF0.025000000000000001
aF0.019
aF0.017000000000000001
aF0.014999999999999999
aF0.012
aF0.017999999999999999
aF0.019
aF0.016
aF0.024
aF0.025999999999999999
aF0.021999999999999999
aF0.017000000000000001
aF0.012
aF0.012
aF0.012999999999999999
aF0.016
aF0.017999999999999999
aF0.017999999999999999
aF0.025000000000000001
aF0.023
aF0.017999999999999999
aF0.014999999999999999
aF0.019
aF0.017999999999999999
aF0.012999999999999999
aF0.014
aF0.012999999999999999
asS'NFKB'
p76
(lp77
F0.0
aF0.0
aF0.0
aF0.001
aF0.0040000000000000001
aF0.019
aF0.028000000000000001
aF0.036999999999999998
aF0.056000000000000001
aF0.051999999999999998
aF0.048000000000000001
aF0.050000000000000003
aF0.045999999999999999
aF0.036999999999999998
aF0.041000000000000002
aF0.035000000000000003
aF0.039
aF0.041000000000000002
aF0.050999999999999997
aF0.050000000000000003
aF0.052999999999999999
aF0.047
aF0.042999999999999997
aF0.035000000000000003
aF0.035000000000000003
aF0.035999999999999997
aF0.036999999999999998
aF0.035999999999999997
aF0.036999999999999998
aF0.041000000000000002
aF0.033000000000000002
aF0.039
aF0.033000000000000002
aF0.032000000000000001
aF0.035000000000000003
aF0.025000000000000001
aF0.036999999999999998
aF0.033000000000000002
aF0.033000000000000002
aF0.023
aF0.023
aF0.027
aF0.032000000000000001
aF0.029999999999999999
aF0.025000000000000001
aF0.024
aF0.024
aF0.02
aF0.027
aF0.024
aF0.027
aF0.021000000000000001
aF0.023
aF0.023
aF0.021999999999999999
aF0.021999999999999999
aF0.024
aF0.019
aF0.017999999999999999
aF0.017999999999999999
aF0.017000000000000001
aF0.014
aF0.02
aF0.017999999999999999
aF0.017999999999999999
aF0.014
aF0.014
aF0.014
aF0.012
aF0.012
aF0.017000000000000001
aF0.014999999999999999
aF0.017999999999999999
aF0.017000000000000001
aF0.0089999999999999993
aF0.0060000000000000001
aF0.0080000000000000002
aF0.0060000000000000001
aF0.0080000000000000002
aF0.0080000000000000002
aF0.0080000000000000002
aF0.0060000000000000001
aF0.0080000000000000002
aF0.0070000000000000001
aF0.0080000000000000002
aF0.0089999999999999993
aF0.01
aF0.0040000000000000001
aF0.0040000000000000001
aF0.0050000000000000001
aF0.0060000000000000001
aF0.0080000000000000002
aF0.010999999999999999
aF0.0080000000000000002
aF0.0080000000000000002
aF0.012999999999999999
aF0.0080000000000000002
aF0.0070000000000000001
aF0.0050000000000000001
aF0.002
aF0.0030000000000000001
asS'Ceramide'
p78
(lp79
F0.0
aF0.0
aF0.0
aF0.0
aF0.001
aF0.0040000000000000001
aF0.021000000000000001
aF0.049000000000000002
aF0.089999999999999997
aF0.10100000000000001
aF0.107
aF0.113
aF0.11799999999999999
aF0.114
aF0.121
aF0.13600000000000001
aF0.129
aF0.13400000000000001
aF0.14599999999999999
aF0.151
aF0.153
aF0.14699999999999999
aF0.153
aF0.14000000000000001
aF0.13800000000000001
aF0.13900000000000001
aF0.13700000000000001
aF0.151
aF0.14000000000000001
aF0.14599999999999999
aF0.14199999999999999
aF0.13400000000000001
aF0.13
aF0.13500000000000001
aF0.14199999999999999
aF0.159
aF0.158
aF0.13700000000000001
aF0.13900000000000001
aF0.13800000000000001
aF0.14899999999999999
aF0.14399999999999999
aF0.13400000000000001
aF0.125
aF0.13
aF0.127
aF0.13400000000000001
aF0.13400000000000001
aF0.13900000000000001
aF0.123
aF0.113
aF0.105
aF0.107
aF0.104
aF0.099000000000000005
aF0.10000000000000001
aF0.094
aF0.090999999999999998
aF0.092999999999999999
aF0.086999999999999994
aF0.092999999999999999
aF0.096000000000000002
aF0.086999999999999994
aF0.078
aF0.083000000000000004
aF0.075999999999999998
aF0.069000000000000006
aF0.068000000000000005
aF0.062
aF0.066000000000000003
aF0.059999999999999998
aF0.062
aF0.062
aF0.052999999999999999
aF0.053999999999999999
aF0.055
aF0.050000000000000003
aF0.052999999999999999
aF0.042000000000000003
aF0.048000000000000001
aF0.056000000000000001
aF0.050999999999999997
aF0.050000000000000003
aF0.049000000000000002
aF0.045999999999999999
aF0.040000000000000001
aF0.045999999999999999
aF0.047
aF0.044999999999999998
aF0.051999999999999998
aF0.050999999999999997
aF0.040000000000000001
aF0.034000000000000002
aF0.040000000000000001
aF0.037999999999999999
aF0.042000000000000003
aF0.041000000000000002
aF0.035999999999999997
aF0.035000000000000003
aF0.033000000000000002
aF0.029999999999999999
asS'IL15'
p80
(lp81
F0.0
aF0.0
aF0.0
aF0.0
aF0.0
aF0.0
aF0.0
aF0.0
aF0.0
aF0.0
aF0.0
aF0.0
aF0.0
aF0.0
aF0.0
aF0.0
aF0.0
aF0.0
aF0.0
aF0.0
aF0.0
aF0.0
aF0.0
aF0.0
aF0.0
aF0.0
aF0.0
aF0.0
aF0.0
aF0.0
aF0.0
aF0.0
aF0.0
aF0.0
aF0.0
aF0.0
aF0.0
aF0.0
aF0.0
aF0.0
aF0.0
aF0.0
aF0.0
aF0.0
aF0.0
aF0.0
aF0.0
aF0.0
aF0.0
aF0.0
aF0.0
aF0.0
aF0.0
aF0.0
aF0.0
aF0.0
aF0.0
aF0.0
aF0.0
aF0.0
aF0.0
aF0.0
aF0.0
aF0.0
aF0.0
aF0.0
aF0.0
aF0.0
aF0.0
aF0.0
aF0.0
aF0.0
aF0.0
aF0.0
aF0.0
aF0.0
aF0.0
aF0.0
aF0.0
aF0.0
aF0.0
aF0.0
aF0.0
aF0.0
aF0.0
aF0.0
aF0.0
aF0.0
aF0.0
aF0.0
aF0.0
aF0.0
aF0.0
aF0.0
aF0.0
aF0.0
aF0.0
aF0.0
aF0.0
aF0.0
aF0.0
asS'MEK'
p82
(lp83
F0.0
aF0.0080000000000000002
aF0.106
aF0.24199999999999999
aF0.214
aF0.20499999999999999
aF0.24199999999999999
aF0.26400000000000001
aF0.25
aF0.251
aF0.249
aF0.23300000000000001
aF0.21099999999999999
aF0.216
aF0.20399999999999999
aF0.22
aF0.21199999999999999
aF0.21299999999999999
aF0.21299999999999999
aF0.19600000000000001
aF0.19800000000000001
aF0.20599999999999999
aF0.193
aF0.184
aF0.16300000000000001
aF0.17699999999999999
aF0.16200000000000001
aF0.153
aF0.17499999999999999
aF0.16700000000000001
aF0.14199999999999999
aF0.14499999999999999
aF0.161
aF0.186
aF0.158
aF0.126
aF0.14399999999999999
aF0.13300000000000001
aF0.126
aF0.128
aF0.14299999999999999
aF0.14000000000000001
aF0.129
aF0.11799999999999999
aF0.115
aF0.11
aF0.107
aF0.10100000000000001
aF0.10199999999999999
aF0.097000000000000003
aF0.10199999999999999
aF0.098000000000000004
aF0.082000000000000003
aF0.089999999999999997
aF0.095000000000000001
aF0.092999999999999999
aF0.079000000000000001
aF0.078
aF0.084000000000000005
aF0.080000000000000002
aF0.079000000000000001
aF0.075999999999999998
aF0.058999999999999997
aF0.067000000000000004
aF0.060999999999999999
aF0.057000000000000002
aF0.058999999999999997
aF0.056000000000000001
aF0.058999999999999997
aF0.058999999999999997
aF0.055
aF0.053999999999999999
aF0.052999999999999999
aF0.034000000000000002
aF0.035999999999999997
aF0.040000000000000001
aF0.041000000000000002
aF0.043999999999999997
aF0.047
aF0.041000000000000002
aF0.035999999999999997
aF0.045999999999999999
aF0.039
aF0.031
aF0.032000000000000001
aF0.028000000000000001
aF0.035000000000000003
aF0.037999999999999999
aF0.036999999999999998
aF0.031
aF0.034000000000000002
aF0.029999999999999999
aF0.034000000000000002
aF0.035000000000000003
aF0.039
aF0.032000000000000001
aF0.027
aF0.023
aF0.02
aF0.023
aF0.024
asS'TPL2'
p84
(lp85
F0.0
aF0.0
aF0.0
aF0.0
aF0.002
aF0.002
aF0.0060000000000000001
aF0.023
aF0.027
aF0.036999999999999998
aF0.032000000000000001
aF0.024
aF0.033000000000000002
aF0.021999999999999999
aF0.025999999999999999
aF0.027
aF0.024
aF0.027
aF0.029000000000000001
aF0.025000000000000001
aF0.029000000000000001
aF0.032000000000000001
aF0.024
aF0.021999999999999999
aF0.029000000000000001
aF0.021999999999999999
aF0.023
aF0.028000000000000001
aF0.029000000000000001
aF0.021999999999999999
aF0.028000000000000001
aF0.025999999999999999
aF0.027
aF0.023
aF0.021999999999999999
aF0.021000000000000001
aF0.016
aF0.021000000000000001
aF0.023
aF0.021999999999999999
aF0.016
aF0.014999999999999999
aF0.023
aF0.025000000000000001
aF0.017000000000000001
aF0.014
aF0.010999999999999999
aF0.014
aF0.016
aF0.02
aF0.019
aF0.016
aF0.014999999999999999
aF0.014
aF0.016
aF0.012999999999999999
aF0.010999999999999999
aF0.014999999999999999
aF0.014
aF0.01
aF0.012999999999999999
aF0.012999999999999999
aF0.012999999999999999
aF0.01
aF0.012999999999999999
aF0.012999999999999999
aF0.0040000000000000001
aF0.01
aF0.0080000000000000002
aF0.0070000000000000001
aF0.0080000000000000002
aF0.0089999999999999993
aF0.01
aF0.012999999999999999
aF0.0070000000000000001
aF0.0040000000000000001
aF0.0030000000000000001
aF0.0080000000000000002
aF0.0060000000000000001
aF0.0040000000000000001
aF0.0050000000000000001
aF0.0060000000000000001
aF0.0030000000000000001
aF0.0040000000000000001
aF0.0040000000000000001
aF0.0060000000000000001
aF0.0060000000000000001
aF0.0030000000000000001
aF0.0
aF0.001
aF0.002
aF0.0030000000000000001
aF0.0030000000000000001
aF0.0060000000000000001
aF0.0080000000000000002
aF0.0060000000000000001
aF0.0060000000000000001
aF0.002
aF0.002
aF0.0
aF0.001
asS'GRB2'
p86
(lp87
F0.0
aF0.122
aF0.29999999999999999
aF0.157
aF0.20100000000000001
aF0.23300000000000001
aF0.215
aF0.224
aF0.20699999999999999
aF0.21099999999999999
aF0.217
aF0.19500000000000001
aF0.20999999999999999
aF0.192
aF0.17100000000000001
aF0.20499999999999999
aF0.189
aF0.17499999999999999
aF0.159
aF0.184
aF0.187
aF0.17399999999999999
aF0.154
aF0.156
aF0.159
aF0.13600000000000001
aF0.13700000000000001
aF0.14399999999999999
aF0.13800000000000001
aF0.14000000000000001
aF0.129
aF0.153
aF0.154
aF0.13500000000000001
aF0.12
aF0.113
aF0.125
aF0.11799999999999999
aF0.095000000000000001
aF0.125
aF0.11
aF0.107
aF0.10100000000000001
aF0.108
aF0.096000000000000002
aF0.098000000000000004
aF0.10000000000000001
aF0.097000000000000003
aF0.082000000000000003
aF0.089999999999999997
aF0.085999999999999993
aF0.072999999999999995
aF0.065000000000000002
aF0.086999999999999994
aF0.064000000000000001
aF0.069000000000000006
aF0.068000000000000005
aF0.079000000000000001
aF0.059999999999999998
aF0.075999999999999998
aF0.064000000000000001
aF0.049000000000000002
aF0.050999999999999997
aF0.043999999999999997
aF0.043999999999999997
aF0.050000000000000003
aF0.055
aF0.044999999999999998
aF0.050000000000000003
aF0.045999999999999999
aF0.044999999999999998
aF0.031
aF0.033000000000000002
aF0.037999999999999999
aF0.037999999999999999
aF0.044999999999999998
aF0.034000000000000002
aF0.033000000000000002
aF0.034000000000000002
aF0.034000000000000002
aF0.029999999999999999
aF0.034000000000000002
aF0.031
aF0.028000000000000001
aF0.029999999999999999
aF0.040000000000000001
aF0.029999999999999999
aF0.029999999999999999
aF0.035999999999999997
aF0.021999999999999999
aF0.025000000000000001
aF0.035000000000000003
aF0.024
aF0.025999999999999999
aF0.032000000000000001
aF0.025999999999999999
aF0.021000000000000001
aF0.028000000000000001
aF0.025999999999999999
aF0.017999999999999999
aF0.029000000000000001
asS'IL2'
p88
(lp89
F0.0
aF0.002
aF0.037999999999999999
aF0.16300000000000001
aF0.19700000000000001
aF0.14599999999999999
aF0.153
aF0.14599999999999999
aF0.14999999999999999
aF0.16200000000000001
aF0.157
aF0.16200000000000001
aF0.14299999999999999
aF0.13300000000000001
aF0.154
aF0.14199999999999999
aF0.155
aF0.155
aF0.14000000000000001
aF0.112
aF0.121
aF0.13900000000000001
aF0.14499999999999999
aF0.11799999999999999
aF0.114
aF0.111
aF0.11700000000000001
aF0.109
aF0.10000000000000001
aF0.107
aF0.108
aF0.122
aF0.097000000000000003
aF0.105
aF0.13
aF0.092999999999999999
aF0.078
aF0.085999999999999993
aF0.087999999999999995
aF0.083000000000000004
aF0.089999999999999997
aF0.094
aF0.079000000000000001
aF0.085000000000000006
aF0.085000000000000006
aF0.071999999999999995
aF0.080000000000000002
aF0.078
aF0.074999999999999997
aF0.073999999999999996
aF0.064000000000000001
aF0.058999999999999997
aF0.060999999999999999
aF0.060999999999999999
aF0.053999999999999999
aF0.064000000000000001
aF0.063
aF0.051999999999999998
aF0.050999999999999997
aF0.050999999999999997
aF0.065000000000000002
aF0.050000000000000003
aF0.040000000000000001
aF0.037999999999999999
aF0.040000000000000001
aF0.036999999999999998
aF0.039
aF0.037999999999999999
aF0.040000000000000001
aF0.042999999999999997
aF0.042999999999999997
aF0.034000000000000002
aF0.021000000000000001
aF0.021999999999999999
aF0.019
aF0.027
aF0.029999999999999999
aF0.029000000000000001
aF0.025000000000000001
aF0.025000000000000001
aF0.034000000000000002
aF0.029999999999999999
aF0.024
aF0.021999999999999999
aF0.019
aF0.017999999999999999
aF0.025000000000000001
aF0.029000000000000001
aF0.029999999999999999
aF0.027
aF0.023
aF0.023
aF0.021000000000000001
aF0.025000000000000001
aF0.025000000000000001
aF0.024
aF0.025000000000000001
aF0.019
aF0.019
aF0.02
aF0.017000000000000001
asS'Migration'
p90
(lp91
F0.0
aF0.0
aF0.0
aF0.0040000000000000001
aF0.035000000000000003
aF0.085000000000000006
aF0.097000000000000003
aF0.076999999999999999
aF0.071999999999999995
aF0.075999999999999998
aF0.094
aF0.087999999999999995
aF0.089999999999999997
aF0.080000000000000002
aF0.066000000000000003
aF0.062
aF0.071999999999999995
aF0.083000000000000004
aF0.087999999999999995
aF0.074999999999999997
aF0.073999999999999996
aF0.065000000000000002
aF0.067000000000000004
aF0.068000000000000005
aF0.063
aF0.064000000000000001
aF0.056000000000000001
aF0.053999999999999999
aF0.051999999999999998
aF0.053999999999999999
aF0.049000000000000002
aF0.048000000000000001
aF0.048000000000000001
aF0.057000000000000002
aF0.060999999999999999
aF0.058000000000000003
aF0.058000000000000003
aF0.050000000000000003
aF0.029000000000000001
aF0.031
aF0.043999999999999997
aF0.045999999999999999
aF0.041000000000000002
aF0.053999999999999999
aF0.044999999999999998
aF0.032000000000000001
aF0.029999999999999999
aF0.034000000000000002
aF0.034000000000000002
aF0.029999999999999999
aF0.036999999999999998
aF0.034000000000000002
aF0.032000000000000001
aF0.033000000000000002
aF0.032000000000000001
aF0.028000000000000001
aF0.025999999999999999
aF0.025999999999999999
aF0.021999999999999999
aF0.028000000000000001
aF0.028000000000000001
aF0.029000000000000001
aF0.029000000000000001
aF0.014999999999999999
aF0.012
aF0.014999999999999999
aF0.017999999999999999
aF0.02
aF0.019
aF0.016
aF0.025000000000000001
aF0.021999999999999999
aF0.027
aF0.02
aF0.01
aF0.0089999999999999993
aF0.010999999999999999
aF0.012
aF0.012
aF0.012
aF0.012
aF0.014999999999999999
aF0.014
aF0.017999999999999999
aF0.014
aF0.0070000000000000001
aF0.0080000000000000002
aF0.01
aF0.010999999999999999
aF0.012
aF0.012999999999999999
aF0.017000000000000001
aF0.014
aF0.01
aF0.01
aF0.012
aF0.01
aF0.012
aF0.01
aF0.010999999999999999
aF0.0080000000000000002
asS'Fas'
p92
(lp93
F0.0
aF0.0
aF0.0
aF0.0
aF0.0
aF0.0030000000000000001
aF0.016
aF0.029000000000000001
aF0.044999999999999998
aF0.071999999999999995
aF0.072999999999999995
aF0.068000000000000005
aF0.074999999999999997
aF0.071999999999999995
aF0.052999999999999999
aF0.060999999999999999
aF0.058000000000000003
aF0.053999999999999999
aF0.066000000000000003
aF0.070000000000000007
aF0.064000000000000001
aF0.070999999999999994
aF0.062
aF0.059999999999999998
aF0.050999999999999997
aF0.044999999999999998
aF0.050000000000000003
aF0.051999999999999998
aF0.057000000000000002
aF0.052999999999999999
aF0.050999999999999997
aF0.048000000000000001
aF0.047
aF0.052999999999999999
aF0.050000000000000003
aF0.051999999999999998
aF0.044999999999999998
aF0.043999999999999997
aF0.042000000000000003
aF0.041000000000000002
aF0.043999999999999997
aF0.034000000000000002
aF0.035999999999999997
aF0.042999999999999997
aF0.041000000000000002
aF0.036999999999999998
aF0.037999999999999999
aF0.032000000000000001
aF0.031
aF0.037999999999999999
aF0.036999999999999998
aF0.036999999999999998
aF0.031
aF0.035000000000000003
aF0.035999999999999997
aF0.032000000000000001
aF0.027
aF0.029999999999999999
aF0.028000000000000001
aF0.021000000000000001
aF0.025999999999999999
aF0.025000000000000001
aF0.023
aF0.021999999999999999
aF0.029000000000000001
aF0.025000000000000001
aF0.025999999999999999
aF0.019
aF0.017000000000000001
aF0.023
aF0.019
aF0.019
aF0.021000000000000001
aF0.019
aF0.02
aF0.017000000000000001
aF0.014
aF0.01
aF0.010999999999999999
aF0.0080000000000000002
aF0.012999999999999999
aF0.0089999999999999993
aF0.01
aF0.0089999999999999993
aF0.010999999999999999
aF0.010999999999999999
aF0.012999999999999999
aF0.012
aF0.012999999999999999
aF0.0089999999999999993
aF0.0089999999999999993
aF0.0070000000000000001
aF0.0080000000000000002
aF0.012999999999999999
aF0.014
aF0.014999999999999999
aF0.012
aF0.012999999999999999
aF0.012
aF0.010999999999999999
aF0.0070000000000000001
asS'IL2RL'
p94
(lp95
F0.0
aF0.0
aF0.0050000000000000001
aF0.035999999999999997
aF0.10000000000000001
aF0.097000000000000003
aF0.067000000000000004
aF0.081000000000000003
aF0.078
aF0.087999999999999995
aF0.098000000000000004
aF0.092999999999999999
aF0.082000000000000003
aF0.065000000000000002
aF0.064000000000000001
aF0.078
aF0.080000000000000002
aF0.081000000000000003
aF0.074999999999999997
aF0.076999999999999999
aF0.055
aF0.069000000000000006
aF0.073999999999999996
aF0.064000000000000001
aF0.071999999999999995
aF0.057000000000000002
aF0.050000000000000003
aF0.058999999999999997
aF0.056000000000000001
aF0.059999999999999998
aF0.053999999999999999
aF0.050000000000000003
aF0.063
aF0.052999999999999999
aF0.070999999999999994
aF0.066000000000000003
aF0.049000000000000002
aF0.029999999999999999
aF0.043999999999999997
aF0.058000000000000003
aF0.042999999999999997
aF0.051999999999999998
aF0.058000000000000003
aF0.043999999999999997
aF0.035999999999999997
aF0.037999999999999999
aF0.042000000000000003
aF0.036999999999999998
aF0.036999999999999998
aF0.032000000000000001
aF0.040000000000000001
aF0.032000000000000001
aF0.032000000000000001
aF0.031
aF0.031
aF0.033000000000000002
aF0.036999999999999998
aF0.023
aF0.025000000000000001
aF0.033000000000000002
aF0.031
aF0.025000000000000001
aF0.021000000000000001
aF0.016
aF0.016
aF0.021999999999999999
aF0.016
aF0.017000000000000001
aF0.021999999999999999
aF0.025000000000000001
aF0.025999999999999999
aF0.027
aF0.017999999999999999
aF0.010999999999999999
aF0.010999999999999999
aF0.01
aF0.012999999999999999
aF0.012
aF0.014
aF0.014999999999999999
aF0.016
aF0.014999999999999999
aF0.012999999999999999
aF0.012999999999999999
aF0.0070000000000000001
aF0.0070000000000000001
aF0.01
aF0.0089999999999999993
aF0.014999999999999999
aF0.016
aF0.02
aF0.014
aF0.012
aF0.0089999999999999993
aF0.014999999999999999
aF0.010999999999999999
aF0.012
aF0.012
aF0.0089999999999999993
aF0.01
aF0.0060000000000000001
asS'CREB'
p96
(lp97
F0.0
aF0.0
aF0.0
aF0.0
aF0.0030000000000000001
aF0.0089999999999999993
aF0.012
aF0.017999999999999999
aF0.0070000000000000001
aF0.01
aF0.012
aF0.010999999999999999
aF0.0089999999999999993
aF0.0080000000000000002
aF0.01
aF0.0089999999999999993
aF0.0089999999999999993
aF0.010999999999999999
aF0.012
aF0.0089999999999999993
aF0.0080000000000000002
aF0.0089999999999999993
aF0.010999999999999999
aF0.0080000000000000002
aF0.014
aF0.0060000000000000001
aF0.01
aF0.0089999999999999993
aF0.014
aF0.0089999999999999993
aF0.012
aF0.0040000000000000001
aF0.012
aF0.0050000000000000001
aF0.0030000000000000001
aF0.01
aF0.002
aF0.01
aF0.0050000000000000001
aF0.0040000000000000001
aF0.0089999999999999993
aF0.0070000000000000001
aF0.0040000000000000001
aF0.0080000000000000002
aF0.0050000000000000001
aF0.0060000000000000001
aF0.0030000000000000001
aF0.0070000000000000001
aF0.0080000000000000002
aF0.002
aF0.0030000000000000001
aF0.0070000000000000001
aF0.0070000000000000001
aF0.0070000000000000001
aF0.0050000000000000001
aF0.0040000000000000001
aF0.0080000000000000002
aF0.002
aF0.002
aF0.0060000000000000001
aF0.0050000000000000001
aF0.0060000000000000001
aF0.0050000000000000001
aF0.0060000000000000001
aF0.002
aF0.0040000000000000001
aF0.002
aF0.001
aF0.002
aF0.001
aF0.0040000000000000001
aF0.0030000000000000001
aF0.0080000000000000002
aF0.0040000000000000001
aF0.002
aF0.0
aF0.0
aF0.0040000000000000001
aF0.0
aF0.0040000000000000001
aF0.0030000000000000001
aF0.002
aF0.001
aF0.001
aF0.0
aF0.002
aF0.001
aF0.001
aF0.002
aF0.0030000000000000001
aF0.0030000000000000001
aF0.0030000000000000001
aF0.0040000000000000001
aF0.002
aF0.0030000000000000001
aF0.0040000000000000001
aF0.0060000000000000001
aF0.001
aF0.001
aF0.001
aF0.002
asS'RANTES'
p98
(lp99
F0.0
aF0.0
aF0.0
aF0.0
aF0.002
aF0.0089999999999999993
aF0.023
aF0.032000000000000001
aF0.042000000000000003
aF0.050000000000000003
aF0.050999999999999997
aF0.042000000000000003
aF0.048000000000000001
aF0.041000000000000002
aF0.035000000000000003
aF0.037999999999999999
aF0.031
aF0.037999999999999999
aF0.045999999999999999
aF0.044999999999999998
aF0.049000000000000002
aF0.047
aF0.045999999999999999
aF0.039
aF0.034000000000000002
aF0.032000000000000001
aF0.029000000000000001
aF0.039
aF0.035000000000000003
aF0.040000000000000001
aF0.036999999999999998
aF0.032000000000000001
aF0.035000000000000003
aF0.029000000000000001
aF0.036999999999999998
aF0.029999999999999999
aF0.028000000000000001
aF0.036999999999999998
aF0.035000000000000003
aF0.028000000000000001
aF0.017999999999999999
aF0.024
aF0.029000000000000001
aF0.035000000000000003
aF0.025000000000000001
aF0.023
aF0.023
aF0.02
aF0.02
aF0.025000000000000001
aF0.029000000000000001
aF0.021999999999999999
aF0.019
aF0.021999999999999999
aF0.024
aF0.02
aF0.024
aF0.021999999999999999
aF0.017999999999999999
aF0.017999999999999999
aF0.014999999999999999
aF0.016
aF0.02
aF0.016
aF0.017999999999999999
aF0.016
aF0.016
aF0.012999999999999999
aF0.012999999999999999
aF0.01
aF0.014
aF0.014999999999999999
aF0.016
aF0.014
aF0.010999999999999999
aF0.0070000000000000001
aF0.0070000000000000001
aF0.0070000000000000001
aF0.0070000000000000001
aF0.0070000000000000001
aF0.01
aF0.0070000000000000001
aF0.0070000000000000001
aF0.0080000000000000002
aF0.0089999999999999993
aF0.0089999999999999993
aF0.0089999999999999993
aF0.0040000000000000001
aF0.0040000000000000001
aF0.0040000000000000001
aF0.0040000000000000001
aF0.0060000000000000001
aF0.0060000000000000001
aF0.0080000000000000002
aF0.0089999999999999993
aF0.0089999999999999993
aF0.0089999999999999993
aF0.0080000000000000002
aF0.0070000000000000001
aF0.0040000000000000001
aF0.0030000000000000001
asS'LCK'
p100
(lp101
F0.0
aF0.32600000000000001
aF0.20899999999999999
aF0.124
aF0.28299999999999997
aF0.193
aF0.219
aF0.214
aF0.191
aF0.215
aF0.19800000000000001
aF0.20599999999999999
aF0.19700000000000001
aF0.191
aF0.188
aF0.19600000000000001
aF0.17000000000000001
aF0.17599999999999999
aF0.17699999999999999
aF0.188
aF0.17899999999999999
aF0.16600000000000001
aF0.156
aF0.161
aF0.151
aF0.13700000000000001
aF0.14399999999999999
aF0.14599999999999999
aF0.13700000000000001
aF0.13500000000000001
aF0.14599999999999999
aF0.153
aF0.151
aF0.13400000000000001
aF0.113
aF0.13300000000000001
aF0.13100000000000001
aF0.104
aF0.105
aF0.14099999999999999
aF0.097000000000000003
aF0.11
aF0.10299999999999999
aF0.099000000000000005
aF0.10199999999999999
aF0.085999999999999993
aF0.097000000000000003
aF0.092999999999999999
aF0.087999999999999995
aF0.086999999999999994
aF0.083000000000000004
aF0.069000000000000006
aF0.076999999999999999
aF0.074999999999999997
aF0.071999999999999995
aF0.064000000000000001
aF0.068000000000000005
aF0.073999999999999996
aF0.067000000000000004
aF0.073999999999999996
aF0.058999999999999997
aF0.056000000000000001
aF0.055
aF0.047
aF0.048000000000000001
aF0.051999999999999998
aF0.051999999999999998
aF0.055
aF0.044999999999999998
aF0.050999999999999997
aF0.035000000000000003
aF0.040000000000000001
aF0.035999999999999997
aF0.037999999999999999
aF0.042000000000000003
aF0.036999999999999998
aF0.035999999999999997
aF0.035000000000000003
aF0.043999999999999997
aF0.032000000000000001
aF0.035000000000000003
aF0.033000000000000002
aF0.031
aF0.035000000000000003
aF0.035000000000000003
aF0.036999999999999998
aF0.031
aF0.031
aF0.024
aF0.023
aF0.027
aF0.037999999999999999
aF0.021000000000000001
aF0.031
aF0.029999999999999999
aF0.019
aF0.023
aF0.025000000000000001
aF0.023
aF0.02
aF0.023
asS'Mcl1'
p102
(lp103
F1.0
aF0.0
aF0.0
aF0.0
aF0.002
aF0.0050000000000000001
aF0.012
aF0.010999999999999999
aF0.012
aF0.014999999999999999
aF0.014
aF0.012
aF0.01
aF0.0030000000000000001
aF0.0070000000000000001
aF0.012999999999999999
aF0.0050000000000000001
aF0.0089999999999999993
aF0.01
aF0.0060000000000000001
aF0.0080000000000000002
aF0.0040000000000000001
aF0.0050000000000000001
aF0.0050000000000000001
aF0.0030000000000000001
aF0.0050000000000000001
aF0.0070000000000000001
aF0.0070000000000000001
aF0.0070000000000000001
aF0.0080000000000000002
aF0.0089999999999999993
aF0.0040000000000000001
aF0.0040000000000000001
aF0.002
aF0.0070000000000000001
aF0.0050000000000000001
aF0.0040000000000000001
aF0.0040000000000000001
aF0.0040000000000000001
aF0.002
aF0.0040000000000000001
aF0.0050000000000000001
aF0.0060000000000000001
aF0.002
aF0.002
aF0.0030000000000000001
aF0.002
aF0.0030000000000000001
aF0.0030000000000000001
aF0.0030000000000000001
aF0.0060000000000000001
aF0.001
aF0.0
aF0.001
aF0.0060000000000000001
aF0.0030000000000000001
aF0.0040000000000000001
aF0.0030000000000000001
aF0.001
aF0.0030000000000000001
aF0.001
aF0.0030000000000000001
aF0.001
aF0.0
aF0.001
aF0.001
aF0.001
aF0.0030000000000000001
aF0.001
aF0.0030000000000000001
aF0.0050000000000000001
aF0.0030000000000000001
aF0.001
aF0.002
aF0.0
aF0.001
aF0.0030000000000000001
aF0.0
aF0.0
aF0.001
aF0.001
aF0.0
aF0.0
aF0.001
aF0.001
aF0.001
aF0.001
aF0.002
aF0.0
aF0.0
aF0.001
aF0.001
aF0.002
aF0.001
aF0.0
aF0.001
aF0.001
aF0.0
aF0.002
aF0.0
aF0.0
asa(dp104
g2
(lp105
F0.0
aF0.0
aF0.0
aF0.014999999999999999
aF0.081000000000000003
aF0.11799999999999999
aF0.094
aF0.081000000000000003
aF0.070000000000000007
aF0.087999999999999995
aF0.079000000000000001
aF0.086999999999999994
aF0.096000000000000002
aF0.111
aF0.092999999999999999
aF0.079000000000000001
aF0.074999999999999997
aF0.080000000000000002
aF0.122
aF0.109
aF0.092999999999999999
aF0.10000000000000001
aF0.090999999999999998
aF0.085000000000000006
aF0.090999999999999998
aF0.099000000000000005
aF0.085000000000000006
aF0.10100000000000001
aF0.104
aF0.10000000000000001
aF0.114
aF0.11600000000000001
aF0.10100000000000001
aF0.094
aF0.090999999999999998
aF0.080000000000000002
aF0.098000000000000004
aF0.10199999999999999
aF0.11899999999999999
aF0.11
aF0.11899999999999999
aF0.10199999999999999
aF0.081000000000000003
aF0.089999999999999997
aF0.115
aF0.11899999999999999
aF0.11
aF0.114
aF0.10199999999999999
aF0.10299999999999999
aF0.109
aF0.094
aF0.109
aF0.091999999999999998
aF0.097000000000000003
aF0.094
aF0.089999999999999997
aF0.091999999999999998
aF0.10199999999999999
aF0.11
aF0.114
aF0.095000000000000001
aF0.114
aF0.10299999999999999
aF0.10199999999999999
aF0.10000000000000001
aF0.10000000000000001
aF0.104
aF0.10100000000000001
aF0.108
aF0.12
aF0.107
aF0.10199999999999999
aF0.106
aF0.091999999999999998
aF0.10000000000000001
aF0.10199999999999999
aF0.10100000000000001
aF0.096000000000000002
aF0.10100000000000001
aF0.11
aF0.099000000000000005
aF0.091999999999999998
aF0.104
aF0.107
aF0.113
aF0.114
aF0.108
aF0.11
aF0.096000000000000002
aF0.094
aF0.113
aF0.105
aF0.106
aF0.087999999999999995
aF0.098000000000000004
aF0.106
aF0.094
aF0.099000000000000005
aF0.105
aF0.114
asg4
(lp106
F0.0
aF0.0
aF0.0
aF0.023
aF0.078
aF0.153
aF0.154
aF0.128
aF0.14499999999999999
aF0.156
aF0.128
aF0.11799999999999999
aF0.13100000000000001
aF0.104
aF0.106
aF0.095000000000000001
aF0.080000000000000002
aF0.075999999999999998
aF0.084000000000000005
aF0.089999999999999997
aF0.074999999999999997
aF0.067000000000000004
aF0.058999999999999997
aF0.062
aF0.062
aF0.063
aF0.055
aF0.043999999999999997
aF0.044999999999999998
aF0.043999999999999997
aF0.049000000000000002
aF0.043999999999999997
aF0.039
aF0.036999999999999998
aF0.042999999999999997
aF0.029999999999999999
aF0.037999999999999999
aF0.034000000000000002
aF0.032000000000000001
aF0.029000000000000001
aF0.012999999999999999
aF0.025000000000000001
aF0.019
aF0.021999999999999999
aF0.017999999999999999
aF0.017999999999999999
aF0.012
aF0.012999999999999999
aF0.017000000000000001
aF0.017000000000000001
aF0.016
aF0.01
aF0.012999999999999999
aF0.0080000000000000002
aF0.012
aF0.012
aF0.01
aF0.0080000000000000002
aF0.0040000000000000001
aF0.0089999999999999993
aF0.01
aF0.0060000000000000001
aF0.010999999999999999
aF0.0089999999999999993
aF0.0070000000000000001
aF0.0080000000000000002
aF0.0089999999999999993
aF0.0060000000000000001
aF0.0050000000000000001
aF0.0070000000000000001
aF0.0070000000000000001
aF0.0060000000000000001
aF0.0040000000000000001
aF0.0050000000000000001
aF0.0050000000000000001
aF0.0060000000000000001
aF0.0050000000000000001
aF0.0060000000000000001
aF0.001
aF0.0040000000000000001
aF0.0040000000000000001
aF0.0030000000000000001
aF0.0060000000000000001
aF0.0030000000000000001
aF0.0040000000000000001
aF0.0050000000000000001
aF0.0030000000000000001
aF0.0050000000000000001
aF0.0030000000000000001
aF0.0030000000000000001
aF0.001
aF0.002
aF0.0030000000000000001
aF0.0
aF0.0030000000000000001
aF0.0030000000000000001
aF0.001
aF0.0
aF0.001
aF0.001
aF0.001
asg6
(lp107
F0.0
aF0.0
aF0.0
aF0.002
aF0.016
aF0.064000000000000001
aF0.124
aF0.122
aF0.114
aF0.111
aF0.107
aF0.115
aF0.13
aF0.14999999999999999
aF0.155
aF0.158
aF0.129
aF0.109
aF0.124
aF0.14399999999999999
aF0.161
aF0.155
aF0.14299999999999999
aF0.121
aF0.11700000000000001
aF0.11799999999999999
aF0.13600000000000001
aF0.13600000000000001
aF0.14099999999999999
aF0.151
aF0.151
aF0.152
aF0.17100000000000001
aF0.152
aF0.13600000000000001
aF0.13500000000000001
aF0.14399999999999999
aF0.14899999999999999
aF0.14799999999999999
aF0.154
aF0.16
aF0.16700000000000001
aF0.17799999999999999
aF0.155
aF0.14999999999999999
aF0.14999999999999999
aF0.16200000000000001
aF0.156
aF0.17199999999999999
aF0.17899999999999999
aF0.17699999999999999
aF0.17100000000000001
aF0.16400000000000001
aF0.16400000000000001
aF0.16700000000000001
aF0.17199999999999999
aF0.16800000000000001
aF0.155
aF0.154
aF0.14799999999999999
aF0.156
aF0.16300000000000001
aF0.16800000000000001
aF0.16700000000000001
aF0.17799999999999999
aF0.16400000000000001
aF0.152
aF0.16200000000000001
aF0.161
aF0.158
aF0.16300000000000001
aF0.17499999999999999
aF0.16900000000000001
aF0.17499999999999999
aF0.16500000000000001
aF0.161
aF0.16900000000000001
aF0.16300000000000001
aF0.16700000000000001
aF0.16800000000000001
aF0.17100000000000001
aF0.16400000000000001
aF0.17399999999999999
aF0.16800000000000001
aF0.154
aF0.159
aF0.17100000000000001
aF0.17899999999999999
aF0.191
aF0.16700000000000001
aF0.16
aF0.14699999999999999
aF0.16400000000000001
aF0.16900000000000001
aF0.154
aF0.14699999999999999
aF0.14499999999999999
aF0.14499999999999999
aF0.14999999999999999
aF0.14999999999999999
aF0.17199999999999999
asg8
(lp108
F0.0
aF0.0
aF0.0
aF0.0
aF0.0
aF0.002
aF0.0030000000000000001
aF0.0089999999999999993
aF0.0089999999999999993
aF0.0050000000000000001
aF0.0050000000000000001
aF0.0080000000000000002
aF0.01
aF0.0089999999999999993
aF0.0089999999999999993
aF0.0070000000000000001
aF0.0060000000000000001
aF0.0089999999999999993
aF0.0050000000000000001
aF0.0030000000000000001
aF0.0050000000000000001
aF0.010999999999999999
aF0.0050000000000000001
aF0.01
aF0.0040000000000000001
aF0.0060000000000000001
aF0.0089999999999999993
aF0.0089999999999999993
aF0.010999999999999999
aF0.01
aF0.0080000000000000002
aF0.0089999999999999993
aF0.0089999999999999993
aF0.0060000000000000001
aF0.0070000000000000001
aF0.0089999999999999993
aF0.010999999999999999
aF0.0060000000000000001
aF0.012999999999999999
aF0.0060000000000000001
aF0.0089999999999999993
aF0.01
aF0.01
aF0.0040000000000000001
aF0.0040000000000000001
aF0.01
aF0.010999999999999999
aF0.0070000000000000001
aF0.01
aF0.01
aF0.012999999999999999
aF0.0050000000000000001
aF0.010999999999999999
aF0.01
aF0.010999999999999999
aF0.012999999999999999
aF0.0089999999999999993
aF0.0070000000000000001
aF0.0060000000000000001
aF0.0040000000000000001
aF0.0070000000000000001
aF0.0060000000000000001
aF0.010999999999999999
aF0.012999999999999999
aF0.01
aF0.0089999999999999993
aF0.012
aF0.0060000000000000001
aF0.0080000000000000002
aF0.01
aF0.0050000000000000001
aF0.0040000000000000001
aF0.0060000000000000001
aF0.012
aF0.01
aF0.0080000000000000002
aF0.0070000000000000001
aF0.014
aF0.010999999999999999
aF0.01
aF0.01
aF0.01
aF0.0060000000000000001
aF0.0080000000000000002
aF0.0070000000000000001
aF0.010999999999999999
aF0.016
aF0.01
aF0.012999999999999999
aF0.01
aF0.0089999999999999993
aF0.014999999999999999
aF0.002
aF0.0060000000000000001
aF0.0070000000000000001
aF0.01
aF0.0050000000000000001
aF0.0050000000000000001
aF0.0070000000000000001
aF0.0070000000000000001
aF0.0089999999999999993
asg10
(lp109
F0.0
aF0.0
aF0.0
aF0.0
aF0.012
aF0.029000000000000001
aF0.071999999999999995
aF0.088999999999999996
aF0.091999999999999998
aF0.088999999999999996
aF0.085000000000000006
aF0.089999999999999997
aF0.091999999999999998
aF0.10299999999999999
aF0.13
aF0.129
aF0.112
aF0.10000000000000001
aF0.10299999999999999
aF0.106
aF0.14399999999999999
aF0.14499999999999999
aF0.13500000000000001
aF0.106
aF0.106
aF0.105
aF0.122
aF0.126
aF0.128
aF0.14199999999999999
aF0.13600000000000001
aF0.14799999999999999
aF0.155
aF0.14399999999999999
aF0.127
aF0.13800000000000001
aF0.13300000000000001
aF0.13500000000000001
aF0.14099999999999999
aF0.14099999999999999
aF0.155
aF0.152
aF0.17100000000000001
aF0.161
aF0.14799999999999999
aF0.14299999999999999
aF0.157
aF0.153
aF0.16700000000000001
aF0.16500000000000001
aF0.161
aF0.16800000000000001
aF0.155
aF0.17100000000000001
aF0.151
aF0.16900000000000001
aF0.161
aF0.16200000000000001
aF0.14299999999999999
aF0.14699999999999999
aF0.153
aF0.16500000000000001
aF0.17199999999999999
aF0.16800000000000001
aF0.16500000000000001
aF0.16500000000000001
aF0.16400000000000001
aF0.158
aF0.158
aF0.16600000000000001
aF0.157
aF0.17100000000000001
aF0.16300000000000001
aF0.17899999999999999
aF0.161
aF0.14399999999999999
aF0.14999999999999999
aF0.16
aF0.16500000000000001
aF0.17100000000000001
aF0.16800000000000001
aF0.16600000000000001
aF0.17299999999999999
aF0.17100000000000001
aF0.153
aF0.155
aF0.17000000000000001
aF0.184
aF0.184
aF0.16800000000000001
aF0.159
aF0.151
aF0.16900000000000001
aF0.16600000000000001
aF0.158
aF0.14499999999999999
aF0.13900000000000001
aF0.14299999999999999
aF0.156
aF0.153
aF0.17100000000000001
asg12
(lp110
F0.0
aF0.035000000000000003
aF0.25900000000000001
aF0.245
aF0.16700000000000001
aF0.23300000000000001
aF0.217
aF0.214
aF0.247
aF0.24299999999999999
aF0.218
aF0.23000000000000001
aF0.21199999999999999
aF0.219
aF0.214
aF0.218
aF0.22
aF0.20599999999999999
aF0.20799999999999999
aF0.245
aF0.219
aF0.20200000000000001
aF0.20100000000000001
aF0.20399999999999999
aF0.23799999999999999
aF0.22600000000000001
aF0.222
aF0.23899999999999999
aF0.23699999999999999
aF0.23100000000000001
aF0.23599999999999999
aF0.24399999999999999
aF0.222
aF0.20399999999999999
aF0.20100000000000001
aF0.22600000000000001
aF0.23400000000000001
aF0.21099999999999999
aF0.23100000000000001
aF0.219
aF0.20399999999999999
aF0.214
aF0.23599999999999999
aF0.21299999999999999
aF0.20499999999999999
aF0.23999999999999999
aF0.23899999999999999
aF0.22900000000000001
aF0.23400000000000001
aF0.216
aF0.23699999999999999
aF0.22500000000000001
aF0.22
aF0.22800000000000001
aF0.22800000000000001
aF0.23200000000000001
aF0.215
aF0.23699999999999999
aF0.217
aF0.216
aF0.22
aF0.24199999999999999
aF0.224
aF0.217
aF0.23599999999999999
aF0.23999999999999999
aF0.248
aF0.22900000000000001
aF0.23000000000000001
aF0.21199999999999999
aF0.21199999999999999
aF0.23400000000000001
aF0.20599999999999999
aF0.22900000000000001
aF0.23599999999999999
aF0.215
aF0.23200000000000001
aF0.23499999999999999
aF0.22800000000000001
aF0.221
aF0.21199999999999999
aF0.23200000000000001
aF0.23000000000000001
aF0.22600000000000001
aF0.214
aF0.22700000000000001
aF0.224
aF0.219
aF0.21199999999999999
aF0.252
aF0.23699999999999999
aF0.22900000000000001
aF0.222
aF0.20699999999999999
aF0.222
aF0.21099999999999999
aF0.20599999999999999
aF0.221
aF0.23599999999999999
aF0.224
aF0.20399999999999999
asg14
(lp111
F0.0
aF0.0
aF0.0
aF0.001
aF0.002
aF0.017999999999999999
aF0.052999999999999999
aF0.088999999999999996
aF0.086999999999999994
aF0.078
aF0.082000000000000003
aF0.088999999999999996
aF0.089999999999999997
aF0.106
aF0.105
aF0.11899999999999999
aF0.111
aF0.097000000000000003
aF0.095000000000000001
aF0.10299999999999999
aF0.13
aF0.153
aF0.13900000000000001
aF0.11700000000000001
aF0.111
aF0.104
aF0.11
aF0.115
aF0.127
aF0.126
aF0.125
aF0.14699999999999999
aF0.156
aF0.151
aF0.14000000000000001
aF0.125
aF0.121
aF0.127
aF0.13
aF0.14299999999999999
aF0.14399999999999999
aF0.152
aF0.14799999999999999
aF0.16500000000000001
aF0.151
aF0.13800000000000001
aF0.152
aF0.14799999999999999
aF0.156
aF0.161
aF0.16300000000000001
aF0.157
aF0.16
aF0.16800000000000001
aF0.16700000000000001
aF0.16500000000000001
aF0.159
aF0.16800000000000001
aF0.16
aF0.14499999999999999
aF0.156
aF0.16900000000000001
aF0.17599999999999999
aF0.158
aF0.17000000000000001
aF0.16400000000000001
aF0.16300000000000001
aF0.14999999999999999
aF0.153
aF0.155
aF0.16600000000000001
aF0.17799999999999999
aF0.17000000000000001
aF0.16400000000000001
aF0.16200000000000001
aF0.16
aF0.16700000000000001
aF0.16800000000000001
aF0.17599999999999999
aF0.16900000000000001
aF0.16600000000000001
aF0.16600000000000001
aF0.161
aF0.16500000000000001
aF0.16700000000000001
aF0.159
aF0.16
aF0.17399999999999999
aF0.193
aF0.16800000000000001
aF0.156
aF0.157
aF0.16
aF0.151
aF0.16400000000000001
aF0.156
aF0.14199999999999999
aF0.152
aF0.16600000000000001
aF0.14999999999999999
aF0.17299999999999999
asg16
(lp112
F0.0
aF0.0
aF0.002
aF0.0050000000000000001
aF0.039
aF0.10299999999999999
aF0.13200000000000001
aF0.11600000000000001
aF0.11899999999999999
aF0.11799999999999999
aF0.11600000000000001
aF0.121
aF0.13600000000000001
aF0.13600000000000001
aF0.14799999999999999
aF0.13800000000000001
aF0.112
aF0.121
aF0.127
aF0.154
aF0.154
aF0.152
aF0.13300000000000001
aF0.128
aF0.122
aF0.121
aF0.13300000000000001
aF0.13700000000000001
aF0.14000000000000001
aF0.14499999999999999
aF0.17100000000000001
aF0.17199999999999999
aF0.16300000000000001
aF0.14599999999999999
aF0.13
aF0.13
aF0.14899999999999999
aF0.14399999999999999
aF0.16
aF0.153
aF0.157
aF0.16500000000000001
aF0.16700000000000001
aF0.152
aF0.14000000000000001
aF0.159
aF0.155
aF0.16600000000000001
aF0.16900000000000001
aF0.17100000000000001
aF0.17299999999999999
aF0.157
aF0.16900000000000001
aF0.16500000000000001
aF0.16500000000000001
aF0.16400000000000001
aF0.16600000000000001
aF0.151
aF0.14599999999999999
aF0.155
aF0.16700000000000001
aF0.17699999999999999
aF0.16700000000000001
aF0.16300000000000001
aF0.16700000000000001
aF0.16700000000000001
aF0.14799999999999999
aF0.155
aF0.16400000000000001
aF0.157
aF0.17199999999999999
aF0.16700000000000001
aF0.16400000000000001
aF0.16
aF0.154
aF0.16400000000000001
aF0.17000000000000001
aF0.17100000000000001
aF0.18099999999999999
aF0.16800000000000001
aF0.16900000000000001
aF0.16400000000000001
aF0.17100000000000001
aF0.158
aF0.158
aF0.16700000000000001
aF0.17999999999999999
aF0.187
aF0.17499999999999999
aF0.157
aF0.153
aF0.14899999999999999
aF0.16600000000000001
aF0.17100000000000001
aF0.153
aF0.14499999999999999
aF0.154
aF0.157
aF0.159
aF0.16600000000000001
aF0.17699999999999999
asg18
(lp113
F0.0
aF0.0
aF0.0
aF0.0
aF0.0
aF0.0
aF0.0
aF0.0
aF0.0
aF0.0
aF0.0
aF0.0
aF0.0
aF0.0
aF0.0
aF0.0
aF0.0
aF0.0
aF0.0
aF0.0
aF0.0
aF0.0
aF0.0
aF0.0
aF0.0
aF0.0
aF0.0
aF0.0
aF0.0
aF0.0
aF0.0
aF0.0
aF0.0
aF0.0
aF0.0
aF0.0
aF0.0
aF0.0
aF0.0
aF0.0
aF0.0
aF0.0
aF0.0
aF0.0
aF0.0
aF0.0
aF0.0
aF0.0
aF0.0
aF0.0
aF0.0
aF0.0
aF0.0
aF0.0
aF0.0
aF0.0
aF0.0
aF0.0
aF0.0
aF0.0
aF0.0
aF0.0
aF0.0
aF0.0
aF0.0
aF0.0
aF0.0
aF0.0
aF0.0
aF0.0
aF0.0
aF0.0
aF0.0
aF0.0
aF0.0
aF0.0
aF0.0
aF0.0
aF0.0
aF0.0
aF0.0
aF0.0
aF0.0
aF0.0
aF0.0
aF0.0
aF0.0
aF0.0
aF0.0
aF0.0
aF0.0
aF0.0
aF0.0
aF0.0
aF0.0
aF0.0
aF0.0
aF0.0
aF0.0
aF0.0
aF0.0
asg20
(lp114
F0.0
aF0.0
aF0.0
aF0.0
aF0.0
aF0.0
aF0.0
aF0.0
aF0.0
aF0.0
aF0.0
aF0.0
aF0.0
aF0.0
aF0.0
aF0.0
aF0.0
aF0.0
aF0.0
aF0.0
aF0.0
aF0.0
aF0.0
aF0.0
aF0.0
aF0.0
aF0.0
aF0.0
aF0.0
aF0.0
aF0.0
aF0.0
aF0.0
aF0.0
aF0.0
aF0.0
aF0.0
aF0.0
aF0.0
aF0.0
aF0.0
aF0.0
aF0.0
aF0.0
aF0.0
aF0.0
aF0.0
aF0.0
aF0.0
aF0.0
aF0.0
aF0.0
aF0.0
aF0.0
aF0.0
aF0.0
aF0.0
aF0.0
aF0.0
aF0.0
aF0.0
aF0.0
aF0.0
aF0.0
aF0.0
aF0.0
aF0.0
aF0.0
aF0.0
aF0.0
aF0.0
aF0.0
aF0.0
aF0.0
aF0.0
aF0.0
aF0.0
aF0.0
aF0.0
aF0.0
aF0.0
aF0.0
aF0.0
aF0.0
aF0.0
aF0.0
aF0.0
aF0.0
aF0.0
aF0.0
aF0.0
aF0.0
aF0.0
aF0.0
aF0.0
aF0.0
aF0.0
aF0.0
aF0.0
aF0.0
aF0.0
asg22
(lp115
F0.0
aF1.0
aF0.24199999999999999
aF0.51600000000000001
aF0.59999999999999998
aF0.40400000000000003
aF0.54500000000000004
aF0.502
aF0.46700000000000003
aF0.51100000000000001
aF0.504
aF0.51600000000000001
aF0.496
aF0.48799999999999999
aF0.503
aF0.48799999999999999
aF0.501
aF0.498
aF0.52500000000000002
aF0.51100000000000001
aF0.47999999999999998
aF0.52000000000000002
aF0.46800000000000003
aF0.51300000000000001
aF0.497
aF0.501
aF0.50900000000000001
aF0.497
aF0.499
aF0.497
aF0.49399999999999999
aF0.51600000000000001
aF0.47999999999999998
aF0.505
aF0.501
aF0.48999999999999999
aF0.48799999999999999
aF0.50900000000000001
aF0.50800000000000001
aF0.51200000000000001
aF0.496
aF0.49199999999999999
aF0.504
aF0.48699999999999999
aF0.50800000000000001
aF0.48099999999999998
aF0.50900000000000001
aF0.501
aF0.48599999999999999
aF0.53400000000000003
aF0.46200000000000002
aF0.51600000000000001
aF0.48999999999999999
aF0.50600000000000001
aF0.501
aF0.47899999999999998
aF0.51000000000000001
aF0.498
aF0.48899999999999999
aF0.51600000000000001
aF0.50900000000000001
aF0.49299999999999999
aF0.495
aF0.49099999999999999
aF0.49399999999999999
aF0.503
aF0.501
aF0.51000000000000001
aF0.495
aF0.51200000000000001
aF0.501
aF0.48099999999999998
aF0.54300000000000004
aF0.49099999999999999
aF0.46600000000000003
aF0.52200000000000002
aF0.47899999999999998
aF0.51200000000000001
aF0.52200000000000002
aF0.50900000000000001
aF0.51200000000000001
aF0.48799999999999999
aF0.50800000000000001
aF0.48499999999999999
aF0.51100000000000001
aF0.495
aF0.496
aF0.51600000000000001
aF0.48699999999999999
aF0.51200000000000001
aF0.50800000000000001
aF0.47699999999999998
aF0.497
aF0.51400000000000001
aF0.47399999999999998
aF0.50700000000000001
aF0.48999999999999999
aF0.48099999999999998
aF0.52100000000000002
aF0.48399999999999999
aF0.51100000000000001
asg24
(lp116
F0.0
aF0.0
aF0.0
aF0.0
aF0.0
aF0.0
aF0.0
aF0.0
aF0.0
aF0.0
aF0.0
aF0.0
aF0.0
aF0.0
aF0.0
aF0.0
aF0.0
aF0.0
aF0.0
aF0.0
aF0.0
aF0.0
aF0.0
aF0.0
aF0.0
aF0.0
aF0.0
aF0.0
aF0.0
aF0.0
aF0.0
aF0.0
aF0.0
aF0.0
aF0.0
aF0.0
aF0.0
aF0.0
aF0.0
aF0.0
aF0.0
aF0.0
aF0.0
aF0.0
aF0.0
aF0.0
aF0.0
aF0.0
aF0.0
aF0.0
aF0.0
aF0.0
aF0.0
aF0.0
aF0.0
aF0.0
aF0.0
aF0.0
aF0.0
aF0.0
aF0.0
aF0.0
aF0.0
aF0.0
aF0.0
aF0.0
aF0.0
aF0.0
aF0.0
aF0.0
aF0.0
aF0.0
aF0.0
aF0.0
aF0.0
aF0.0
aF0.0
aF0.0
aF0.0
aF0.0
aF0.0
aF0.0
aF0.0
aF0.0
aF0.0
aF0.0
aF0.0
aF0.0
aF0.0
aF0.0
aF0.0
aF0.0
aF0.0
aF0.0
aF0.0
aF0.0
aF0.0
aF0.0
aF0.0
aF0.0
aF0.0
asg26
(lp117
F0.0
aF0.0
aF0.0
aF0.001
aF0.002
aF0.010999999999999999
aF0.032000000000000001
aF0.060999999999999999
aF0.079000000000000001
aF0.098000000000000004
aF0.11
aF0.13500000000000001
aF0.154
aF0.17199999999999999
aF0.191
aF0.216
aF0.23599999999999999
aF0.255
aF0.27200000000000002
aF0.28699999999999998
aF0.30499999999999999
aF0.32700000000000001
aF0.34100000000000003
aF0.36299999999999999
aF0.38100000000000001
aF0.39400000000000002
aF0.39800000000000002
aF0.41699999999999998
aF0.434
aF0.44700000000000001
aF0.46100000000000002
aF0.47299999999999998
aF0.49199999999999999
aF0.505
aF0.52000000000000002
aF0.52900000000000003
aF0.54100000000000004
aF0.55300000000000005
aF0.56599999999999995
aF0.57499999999999996
aF0.58199999999999996
aF0.59499999999999997
aF0.60199999999999998
aF0.61199999999999999
aF0.61699999999999999
aF0.623
aF0.63200000000000001
aF0.64100000000000001
aF0.65300000000000002
aF0.66200000000000003
aF0.67100000000000004
aF0.67700000000000005
aF0.68400000000000005
aF0.69399999999999995
aF0.70399999999999996
aF0.71099999999999997
aF0.71799999999999997
aF0.72699999999999998
aF0.73599999999999999
aF0.74399999999999999
aF0.748
aF0.75800000000000001
aF0.76600000000000001
aF0.77700000000000002
aF0.78400000000000003
aF0.79300000000000004
aF0.79800000000000004
aF0.80500000000000005
aF0.81000000000000005
aF0.81399999999999995
aF0.81699999999999995
aF0.82499999999999996
aF0.82899999999999996
aF0.83299999999999996
aF0.83899999999999997
aF0.84099999999999997
aF0.84799999999999998
aF0.85299999999999998
aF0.85999999999999999
aF0.86299999999999999
aF0.86699999999999999
aF0.86899999999999999
aF0.872
aF0.876
aF0.877
aF0.88200000000000001
aF0.88800000000000001
aF0.89300000000000002
aF0.89600000000000002
aF0.89900000000000002
aF0.90400000000000003
aF0.90600000000000003
aF0.91200000000000003
aF0.91200000000000003
aF0.91400000000000003
aF0.91800000000000004
aF0.92000000000000004
aF0.92400000000000004
aF0.92600000000000005
aF0.92700000000000005
aF0.92800000000000005
asg28
(lp118
F0.0
aF0.0070000000000000001
aF0.068000000000000005
aF0.114
aF0.058999999999999997
aF0.090999999999999998
aF0.089999999999999997
aF0.098000000000000004
aF0.10100000000000001
aF0.084000000000000005
aF0.106
aF0.104
aF0.109
aF0.091999999999999998
aF0.098000000000000004
aF0.084000000000000005
aF0.109
aF0.097000000000000003
aF0.089999999999999997
aF0.085000000000000006
aF0.10100000000000001
aF0.094
aF0.092999999999999999
aF0.085000000000000006
aF0.107
aF0.125
aF0.10000000000000001
aF0.099000000000000005
aF0.092999999999999999
aF0.10199999999999999
aF0.113
aF0.107
aF0.085999999999999993
aF0.097000000000000003
aF0.10000000000000001
aF0.10000000000000001
aF0.10000000000000001
aF0.095000000000000001
aF0.10299999999999999
aF0.10100000000000001
aF0.097000000000000003
aF0.10100000000000001
aF0.088999999999999996
aF0.089999999999999997
aF0.085000000000000006
aF0.099000000000000005
aF0.088999999999999996
aF0.089999999999999997
aF0.087999999999999995
aF0.082000000000000003
aF0.099000000000000005
aF0.104
aF0.099000000000000005
aF0.099000000000000005
aF0.114
aF0.097000000000000003
aF0.10299999999999999
aF0.086999999999999994
aF0.10000000000000001
aF0.097000000000000003
aF0.096000000000000002
aF0.081000000000000003
aF0.121
aF0.098000000000000004
aF0.091999999999999998
aF0.094
aF0.105
aF0.104
aF0.10000000000000001
aF0.087999999999999995
aF0.11
aF0.10299999999999999
aF0.076999999999999999
aF0.108
aF0.096000000000000002
aF0.094
aF0.099000000000000005
aF0.10000000000000001
aF0.090999999999999998
aF0.115
aF0.074999999999999997
aF0.10299999999999999
aF0.098000000000000004
aF0.106
aF0.096000000000000002
aF0.092999999999999999
aF0.10299999999999999
aF0.090999999999999998
aF0.091999999999999998
aF0.092999999999999999
aF0.106
aF0.112
aF0.106
aF0.090999999999999998
aF0.086999999999999994
aF0.10299999999999999
aF0.094
aF0.092999999999999999
aF0.087999999999999995
aF0.094
aF0.094
asg30
(lp119
F0.0
aF0.0
aF0.001
aF0.002
aF0.0070000000000000001
aF0.033000000000000002
aF0.012
aF0.021000000000000001
aF0.014
aF0.012
aF0.01
aF0.025999999999999999
aF0.016
aF0.019
aF0.016
aF0.024
aF0.0089999999999999993
aF0.017999999999999999
aF0.021000000000000001
aF0.029000000000000001
aF0.025999999999999999
aF0.021999999999999999
aF0.017000000000000001
aF0.021000000000000001
aF0.016
aF0.02
aF0.024
aF0.02
aF0.029999999999999999
aF0.028000000000000001
aF0.024
aF0.032000000000000001
aF0.031
aF0.019
aF0.029999999999999999
aF0.024
aF0.024
aF0.021000000000000001
aF0.029999999999999999
aF0.029999999999999999
aF0.033000000000000002
aF0.028000000000000001
aF0.017999999999999999
aF0.029000000000000001
aF0.021000000000000001
aF0.029999999999999999
aF0.034000000000000002
aF0.028000000000000001
aF0.031
aF0.035999999999999997
aF0.021000000000000001
aF0.028000000000000001
aF0.031
aF0.025000000000000001
aF0.029000000000000001
aF0.027
aF0.024
aF0.035000000000000003
aF0.029999999999999999
aF0.029999999999999999
aF0.028000000000000001
aF0.032000000000000001
aF0.039
aF0.028000000000000001
aF0.032000000000000001
aF0.025999999999999999
aF0.029999999999999999
aF0.025000000000000001
aF0.034000000000000002
aF0.029000000000000001
aF0.035999999999999997
aF0.02
aF0.027
aF0.034000000000000002
aF0.031
aF0.031
aF0.035000000000000003
aF0.032000000000000001
aF0.027
aF0.042000000000000003
aF0.029000000000000001
aF0.017000000000000001
aF0.029999999999999999
aF0.029000000000000001
aF0.039
aF0.035000000000000003
aF0.025000000000000001
aF0.033000000000000002
aF0.028000000000000001
aF0.032000000000000001
aF0.027
aF0.025999999999999999
aF0.028000000000000001
aF0.035999999999999997
aF0.035999999999999997
aF0.034000000000000002
aF0.028000000000000001
aF0.017999999999999999
aF0.032000000000000001
aF0.035999999999999997
aF0.034000000000000002
asg32
(lp120
F0.0
aF0.0
aF0.014999999999999999
aF0.114
aF0.23499999999999999
aF0.26100000000000001
aF0.26100000000000001
aF0.23899999999999999
aF0.24099999999999999
aF0.23999999999999999
aF0.214
aF0.221
aF0.19700000000000001
aF0.17199999999999999
aF0.16600000000000001
aF0.156
aF0.13200000000000001
aF0.13900000000000001
aF0.152
aF0.13
aF0.121
aF0.11899999999999999
aF0.11
aF0.10299999999999999
aF0.10000000000000001
aF0.092999999999999999
aF0.081000000000000003
aF0.081000000000000003
aF0.081000000000000003
aF0.088999999999999996
aF0.068000000000000005
aF0.070000000000000007
aF0.064000000000000001
aF0.068000000000000005
aF0.058000000000000003
aF0.059999999999999998
aF0.059999999999999998
aF0.063
aF0.048000000000000001
aF0.043999999999999997
aF0.034000000000000002
aF0.033000000000000002
aF0.032000000000000001
aF0.029000000000000001
aF0.032000000000000001
aF0.027
aF0.029000000000000001
aF0.031
aF0.032000000000000001
aF0.021000000000000001
aF0.016
aF0.019
aF0.016
aF0.021999999999999999
aF0.019
aF0.017000000000000001
aF0.016
aF0.010999999999999999
aF0.014999999999999999
aF0.019
aF0.017000000000000001
aF0.012999999999999999
aF0.016
aF0.014999999999999999
aF0.017000000000000001
aF0.016
aF0.012
aF0.010999999999999999
aF0.010999999999999999
aF0.010999999999999999
aF0.012
aF0.01
aF0.0089999999999999993
aF0.01
aF0.012
aF0.010999999999999999
aF0.0089999999999999993
aF0.0080000000000000002
aF0.0080000000000000002
aF0.0070000000000000001
aF0.0080000000000000002
aF0.0060000000000000001
aF0.0050000000000000001
aF0.0060000000000000001
aF0.0050000000000000001
aF0.0060000000000000001
aF0.0040000000000000001
aF0.0060000000000000001
aF0.0040000000000000001
aF0.0030000000000000001
aF0.001
aF0.0030000000000000001
aF0.002
aF0.0030000000000000001
aF0.0050000000000000001
aF0.0030000000000000001
aF0.001
aF0.002
aF0.002
aF0.002
aF0.001
asg34
(lp121
F0.0
aF0.002
aF0.065000000000000002
aF0.23699999999999999
aF0.316
aF0.32100000000000001
aF0.34699999999999998
aF0.39200000000000002
aF0.40000000000000002
aF0.40500000000000003
aF0.40300000000000002
aF0.39600000000000002
aF0.40100000000000002
aF0.39500000000000002
aF0.39200000000000002
aF0.41599999999999998
aF0.39600000000000002
aF0.39800000000000002
aF0.39500000000000002
aF0.38500000000000001
aF0.39900000000000002
aF0.42499999999999999
aF0.41099999999999998
aF0.39600000000000002
aF0.38600000000000001
aF0.38800000000000001
aF0.40999999999999998
aF0.39700000000000002
aF0.40999999999999998
aF0.42799999999999999
aF0.432
aF0.443
aF0.438
aF0.42599999999999999
aF0.38200000000000001
aF0.38600000000000001
aF0.40600000000000003
aF0.41099999999999998
aF0.40799999999999997
aF0.41599999999999998
aF0.41199999999999998
aF0.41399999999999998
aF0.41999999999999998
aF0.40899999999999997
aF0.40999999999999998
aF0.41299999999999998
aF0.41399999999999998
aF0.42999999999999999
aF0.42699999999999999
aF0.41699999999999998
aF0.42799999999999999
aF0.435
aF0.433
aF0.435
aF0.42499999999999999
aF0.42699999999999999
aF0.42699999999999999
aF0.42699999999999999
aF0.434
aF0.41999999999999998
aF0.42999999999999999
aF0.439
aF0.42399999999999999
aF0.41499999999999998
aF0.438
aF0.42299999999999999
aF0.45400000000000001
aF0.44600000000000001
aF0.42499999999999999
aF0.437
aF0.42799999999999999
aF0.435
aF0.436
aF0.44800000000000001
aF0.437
aF0.41999999999999998
aF0.41699999999999998
aF0.42699999999999999
aF0.42799999999999999
aF0.42699999999999999
aF0.42099999999999999
aF0.41599999999999998
aF0.42499999999999999
aF0.435
aF0.432
aF0.42699999999999999
aF0.42499999999999999
aF0.41799999999999998
aF0.42599999999999999
aF0.41499999999999998
aF0.435
aF0.44400000000000001
aF0.41999999999999998
aF0.42499999999999999
aF0.432
aF0.40000000000000002
aF0.40899999999999997
aF0.40899999999999997
aF0.42099999999999999
aF0.42999999999999999
aF0.436
asg36
(lp122
F0.0
aF0.0
aF0.0
aF0.001
aF0.0089999999999999993
aF0.048000000000000001
aF0.059999999999999998
aF0.070000000000000007
aF0.059999999999999998
aF0.058000000000000003
aF0.069000000000000006
aF0.056000000000000001
aF0.068000000000000005
aF0.063
aF0.084000000000000005
aF0.071999999999999995
aF0.062
aF0.059999999999999998
aF0.047
aF0.080000000000000002
aF0.065000000000000002
aF0.074999999999999997
aF0.067000000000000004
aF0.070999999999999994
aF0.055
aF0.057000000000000002
aF0.064000000000000001
aF0.066000000000000003
aF0.062
aF0.068000000000000005
aF0.069000000000000006
aF0.083000000000000004
aF0.086999999999999994
aF0.078
aF0.066000000000000003
aF0.049000000000000002
aF0.070000000000000007
aF0.067000000000000004
aF0.078
aF0.067000000000000004
aF0.062
aF0.065000000000000002
aF0.076999999999999999
aF0.080000000000000002
aF0.067000000000000004
aF0.071999999999999995
aF0.080000000000000002
aF0.072999999999999995
aF0.088999999999999996
aF0.075999999999999998
aF0.082000000000000003
aF0.063
aF0.067000000000000004
aF0.072999999999999995
aF0.075999999999999998
aF0.078
aF0.085000000000000006
aF0.086999999999999994
aF0.059999999999999998
aF0.059999999999999998
aF0.067000000000000004
aF0.074999999999999997
aF0.085999999999999993
aF0.066000000000000003
aF0.070999999999999994
aF0.085999999999999993
aF0.081000000000000003
aF0.066000000000000003
aF0.082000000000000003
aF0.069000000000000006
aF0.070999999999999994
aF0.082000000000000003
aF0.073999999999999996
aF0.079000000000000001
aF0.070999999999999994
aF0.063
aF0.078
aF0.072999999999999995
aF0.078
aF0.069000000000000006
aF0.064000000000000001
aF0.074999999999999997
aF0.082000000000000003
aF0.076999999999999999
aF0.068000000000000005
aF0.055
aF0.070000000000000007
aF0.095000000000000001
aF0.080000000000000002
aF0.064000000000000001
aF0.070000000000000007
aF0.065000000000000002
aF0.086999999999999994
aF0.074999999999999997
aF0.068000000000000005
aF0.057000000000000002
aF0.064000000000000001
aF0.068000000000000005
aF0.060999999999999999
aF0.057000000000000002
aF0.076999999999999999
asg38
(lp123
F0.0
aF0.0070000000000000001
aF0.14299999999999999
aF0.26600000000000001
aF0.18099999999999999
aF0.20399999999999999
aF0.22800000000000001
aF0.22500000000000001
aF0.20999999999999999
aF0.23999999999999999
aF0.23100000000000001
aF0.23599999999999999
aF0.217
aF0.221
aF0.22
aF0.21299999999999999
aF0.22600000000000001
aF0.223
aF0.20200000000000001
aF0.23000000000000001
aF0.23799999999999999
aF0.20699999999999999
aF0.21099999999999999
aF0.192
aF0.218
aF0.22
aF0.22600000000000001
aF0.23400000000000001
aF0.248
aF0.23200000000000001
aF0.22900000000000001
aF0.253
aF0.245
aF0.21099999999999999
aF0.20599999999999999
aF0.21099999999999999
aF0.22900000000000001
aF0.218
aF0.222
aF0.23400000000000001
aF0.214
aF0.20899999999999999
aF0.23499999999999999
aF0.22800000000000001
aF0.20699999999999999
aF0.221
aF0.23599999999999999
aF0.23100000000000001
aF0.23300000000000001
aF0.215
aF0.22
aF0.22500000000000001
aF0.223
aF0.22
aF0.23300000000000001
aF0.224
aF0.223
aF0.217
aF0.23899999999999999
aF0.21199999999999999
aF0.215
aF0.245
aF0.22900000000000001
aF0.222
aF0.218
aF0.253
aF0.248
aF0.23200000000000001
aF0.22900000000000001
aF0.22
aF0.222
aF0.22600000000000001
aF0.20799999999999999
aF0.23899999999999999
aF0.24199999999999999
aF0.24399999999999999
aF0.215
aF0.22600000000000001
aF0.23999999999999999
aF0.23899999999999999
aF0.214
aF0.21299999999999999
aF0.20899999999999999
aF0.23100000000000001
aF0.217
aF0.22500000000000001
aF0.22600000000000001
aF0.218
aF0.214
aF0.22600000000000001
aF0.253
aF0.23999999999999999
aF0.23499999999999999
aF0.20999999999999999
aF0.20799999999999999
aF0.21299999999999999
aF0.20200000000000001
aF0.20599999999999999
aF0.23000000000000001
aF0.22800000000000001
aF0.22
asg40
(lp124
F0.0
aF0.034000000000000002
aF0.246
aF0.26000000000000001
aF0.192
aF0.249
aF0.23200000000000001
aF0.245
aF0.252
aF0.251
aF0.247
aF0.23599999999999999
aF0.224
aF0.23400000000000001
aF0.224
aF0.23200000000000001
aF0.26400000000000001
aF0.224
aF0.23000000000000001
aF0.247
aF0.26100000000000001
aF0.22
aF0.23300000000000001
aF0.23699999999999999
aF0.25
aF0.23100000000000001
aF0.24299999999999999
aF0.255
aF0.252
aF0.26200000000000001
aF0.25600000000000001
aF0.248
aF0.23699999999999999
aF0.221
aF0.222
aF0.23999999999999999
aF0.23899999999999999
aF0.23599999999999999
aF0.254
aF0.23300000000000001
aF0.221
aF0.222
aF0.23200000000000001
aF0.24199999999999999
aF0.223
aF0.252
aF0.253
aF0.245
aF0.24199999999999999
aF0.25
aF0.25800000000000001
aF0.23400000000000001
aF0.23599999999999999
aF0.24099999999999999
aF0.23999999999999999
aF0.23200000000000001
aF0.24299999999999999
aF0.24399999999999999
aF0.248
aF0.23599999999999999
aF0.23799999999999999
aF0.25600000000000001
aF0.248
aF0.23799999999999999
aF0.245
aF0.26600000000000001
aF0.253
aF0.251
aF0.22900000000000001
aF0.23499999999999999
aF0.26200000000000001
aF0.23799999999999999
aF0.245
aF0.22900000000000001
aF0.255
aF0.23200000000000001
aF0.246
aF0.222
aF0.25800000000000001
aF0.248
aF0.24099999999999999
aF0.252
aF0.23899999999999999
aF0.23899999999999999
aF0.22900000000000001
aF0.247
aF0.249
aF0.23999999999999999
aF0.249
aF0.249
aF0.26700000000000002
aF0.25600000000000001
aF0.24399999999999999
aF0.23599999999999999
aF0.247
aF0.23799999999999999
aF0.214
aF0.254
aF0.23100000000000001
aF0.26000000000000001
aF0.22700000000000001
asg42
(lp125
F0.0
aF0.49399999999999999
aF0.74199999999999999
aF0.247
aF0.624
aF0.48199999999999998
aF0.44800000000000001
aF0.54400000000000004
aF0.46500000000000002
aF0.499
aF0.47899999999999998
aF0.50800000000000001
aF0.52800000000000002
aF0.46600000000000003
aF0.54100000000000004
aF0.46500000000000002
aF0.503
aF0.51400000000000001
aF0.48999999999999999
aF0.51800000000000002
aF0.48599999999999999
aF0.49299999999999999
aF0.50800000000000001
aF0.48199999999999998
aF0.52500000000000002
aF0.49199999999999999
aF0.50700000000000001
aF0.495
aF0.503
aF0.503
aF0.48599999999999999
aF0.50700000000000001
aF0.501
aF0.47699999999999998
aF0.51400000000000001
aF0.499
aF0.49199999999999999
aF0.49199999999999999
aF0.496
aF0.48799999999999999
aF0.51300000000000001
aF0.48099999999999998
aF0.52000000000000002
aF0.495
aF0.49399999999999999
aF0.50600000000000001
aF0.47699999999999998
aF0.51800000000000002
aF0.45900000000000002
aF0.52500000000000002
aF0.51200000000000001
aF0.49399999999999999
aF0.51000000000000001
aF0.495
aF0.51400000000000001
aF0.501
aF0.48199999999999998
aF0.51900000000000002
aF0.48999999999999999
aF0.5
aF0.505
aF0.51400000000000001
aF0.502
aF0.51200000000000001
aF0.49299999999999999
aF0.48499999999999999
aF0.50700000000000001
aF0.51400000000000001
aF0.51000000000000001
aF0.49099999999999999
aF0.52700000000000002
aF0.47799999999999998
aF0.497
aF0.52900000000000003
aF0.46500000000000002
aF0.499
aF0.497
aF0.499
aF0.48299999999999998
aF0.50700000000000001
aF0.50600000000000001
aF0.504
aF0.497
aF0.48999999999999999
aF0.50800000000000001
aF0.49399999999999999
aF0.48999999999999999
aF0.50900000000000001
aF0.499
aF0.47499999999999998
aF0.52600000000000002
aF0.49299999999999999
aF0.48699999999999999
aF0.51000000000000001
aF0.50900000000000001
aF0.47099999999999997
aF0.52300000000000002
aF0.47199999999999998
aF0.50900000000000001
aF0.51800000000000002
aF0.501
asg44
(lp126
F1.0
aF1.0
aF1.0
aF1.0
aF1.0
aF1.0
aF1.0
aF1.0
aF1.0
aF1.0
aF1.0
aF1.0
aF1.0
aF1.0
aF1.0
aF1.0
aF1.0
aF1.0
aF1.0
aF1.0
aF1.0
aF1.0
aF1.0
aF1.0
aF1.0
aF1.0
aF1.0
aF1.0
aF1.0
aF1.0
aF1.0
aF1.0
aF1.0
aF1.0
aF1.0
aF1.0
aF1.0
aF1.0
aF1.0
aF1.0
aF1.0
aF1.0
aF1.0
aF1.0
aF1.0
aF1.0
aF1.0
aF1.0
aF1.0
aF1.0
aF1.0
aF1.0
aF1.0
aF1.0
aF1.0
aF1.0
aF1.0
aF1.0
aF1.0
aF1.0
aF1.0
aF1.0
aF1.0
aF1.0
aF1.0
aF1.0
aF1.0
aF1.0
aF1.0
aF1.0
aF1.0
aF1.0
aF1.0
aF1.0
aF1.0
aF1.0
aF1.0
aF1.0
aF1.0
aF1.0
aF1.0
aF1.0
aF1.0
aF1.0
aF1.0
aF1.0
aF1.0
aF1.0
aF1.0
aF1.0
aF1.0
aF1.0
aF1.0
aF1.0
aF1.0
aF1.0
aF1.0
aF1.0
aF1.0
aF1.0
aF1.0
asg46
(lp127
F0.0
aF0.498
aF0.64000000000000001
aF0.32900000000000001
aF0.55900000000000005
aF0.48199999999999998
aF0.47899999999999998
aF0.53400000000000003
aF0.47999999999999998
aF0.50600000000000001
aF0.496
aF0.495
aF0.53300000000000003
aF0.46899999999999997
aF0.50600000000000001
aF0.46100000000000002
aF0.51600000000000001
aF0.498
aF0.505
aF0.52500000000000002
aF0.502
aF0.49399999999999999
aF0.47399999999999998
aF0.47599999999999998
aF0.50900000000000001
aF0.49099999999999999
aF0.497
aF0.499
aF0.48499999999999999
aF0.5
aF0.49299999999999999
aF0.505
aF0.51300000000000001
aF0.48199999999999998
aF0.50600000000000001
aF0.501
aF0.48899999999999999
aF0.47599999999999998
aF0.52900000000000003
aF0.497
aF0.52900000000000003
aF0.48599999999999999
aF0.52600000000000002
aF0.499
aF0.49099999999999999
aF0.48799999999999999
aF0.48699999999999999
aF0.48599999999999999
aF0.47599999999999998
aF0.50800000000000001
aF0.48999999999999999
aF0.47599999999999998
aF0.52200000000000002
aF0.49399999999999999
aF0.49099999999999999
aF0.53600000000000003
aF0.47399999999999998
aF0.51700000000000002
aF0.47199999999999998
aF0.499
aF0.52100000000000002
aF0.51800000000000002
aF0.48999999999999999
aF0.49299999999999999
aF0.49199999999999999
aF0.46899999999999997
aF0.51300000000000001
aF0.505
aF0.48799999999999999
aF0.50600000000000001
aF0.53500000000000003
aF0.499
aF0.50800000000000001
aF0.53100000000000003
aF0.48899999999999999
aF0.49399999999999999
aF0.47799999999999998
aF0.50700000000000001
aF0.503
aF0.496
aF0.51700000000000002
aF0.48399999999999999
aF0.505
aF0.48999999999999999
aF0.5
aF0.49099999999999999
aF0.499
aF0.51700000000000002
aF0.48399999999999999
aF0.46000000000000002
aF0.52500000000000002
aF0.48899999999999999
aF0.49199999999999999
aF0.52200000000000002
aF0.51900000000000002
aF0.501
aF0.49399999999999999
aF0.48399999999999999
aF0.51000000000000001
aF0.503
aF0.51200000000000001
asg48
(lp128
F0.0
aF0.01
aF0.11700000000000001
aF0.26200000000000001
aF0.222
aF0.21099999999999999
aF0.249
aF0.24099999999999999
aF0.26300000000000001
aF0.24099999999999999
aF0.26400000000000001
aF0.252
aF0.23699999999999999
aF0.23100000000000001
aF0.248
aF0.22700000000000001
aF0.248
aF0.253
aF0.22600000000000001
aF0.23000000000000001
aF0.253
aF0.24199999999999999
aF0.23499999999999999
aF0.23100000000000001
aF0.23599999999999999
aF0.249
aF0.23799999999999999
aF0.26200000000000001
aF0.251
aF0.24299999999999999
aF0.252
aF0.25
aF0.248
aF0.23200000000000001
aF0.22500000000000001
aF0.22700000000000001
aF0.24199999999999999
aF0.249
aF0.23300000000000001
aF0.23899999999999999
aF0.221
aF0.216
aF0.219
aF0.245
aF0.23899999999999999
aF0.23100000000000001
aF0.247
aF0.24299999999999999
aF0.24299999999999999
aF0.23699999999999999
aF0.26500000000000001
aF0.23799999999999999
aF0.24199999999999999
aF0.224
aF0.245
aF0.24399999999999999
aF0.23799999999999999
aF0.23999999999999999
aF0.251
aF0.247
aF0.223
aF0.23999999999999999
aF0.25700000000000001
aF0.249
aF0.24299999999999999
aF0.27000000000000002
aF0.25
aF0.245
aF0.23699999999999999
aF0.246
aF0.24299999999999999
aF0.23699999999999999
aF0.23599999999999999
aF0.23699999999999999
aF0.249
aF0.22800000000000001
aF0.24299999999999999
aF0.24099999999999999
aF0.24199999999999999
aF0.23799999999999999
aF0.23400000000000001
aF0.23999999999999999
aF0.248
aF0.246
aF0.221
aF0.23300000000000001
aF0.24399999999999999
aF0.22900000000000001
aF0.23499999999999999
aF0.249
aF0.25800000000000001
aF0.26200000000000001
aF0.245
aF0.246
aF0.246
aF0.23300000000000001
aF0.20899999999999999
aF0.246
aF0.248
aF0.245
aF0.255
asg50
(lp129
F0.0
aF0.0
aF0.0
aF0.0
aF0.0
aF0.0
aF0.0
aF0.0
aF0.0
aF0.0
aF0.0
aF0.0
aF0.0
aF0.0
aF0.0
aF0.0
aF0.0
aF0.0
aF0.0
aF0.0
aF0.0
aF0.0
aF0.0
aF0.0
aF0.0
aF0.0
aF0.0
aF0.0
aF0.0
aF0.0
aF0.0
aF0.0
aF0.0
aF0.0
aF0.0
aF0.0
aF0.0
aF0.0
aF0.0
aF0.0
aF0.0
aF0.0
aF0.0
aF0.0
aF0.0
aF0.0
aF0.0
aF0.0
aF0.0
aF0.0
aF0.0
aF0.0
aF0.0
aF0.0
aF0.0
aF0.0
aF0.0
aF0.0
aF0.0
aF0.0
aF0.0
aF0.0
aF0.0
aF0.0
aF0.0
aF0.0
aF0.0
aF0.0
aF0.0
aF0.0
aF0.0
aF0.0
aF0.0
aF0.0
aF0.0
aF0.0
aF0.0
aF0.0
aF0.0
aF0.0
aF0.0
aF0.0
aF0.0
aF0.0
aF0.0
aF0.0
aF0.0
aF0.0
aF0.0
aF0.0
aF0.0
aF0.0
aF0.0
aF0.0
aF0.0
aF0.0
aF0.0
aF0.0
aF0.0
aF0.0
aF0.0
asg52
(lp130
F1.0
aF1.0
aF1.0
aF1.0
aF1.0
aF1.0
aF1.0
aF1.0
aF1.0
aF1.0
aF1.0
aF1.0
aF1.0
aF1.0
aF1.0
aF1.0
aF1.0
aF1.0
aF1.0
aF1.0
aF1.0
aF1.0
aF1.0
aF1.0
aF1.0
aF1.0
aF1.0
aF1.0
aF1.0
aF1.0
aF1.0
aF1.0
aF1.0
aF1.0
aF1.0
aF1.0
aF1.0
aF1.0
aF1.0
aF1.0
aF1.0
aF1.0
aF1.0
aF1.0
aF1.0
aF1.0
aF1.0
aF1.0
aF1.0
aF1.0
aF1.0
aF1.0
aF1.0
aF1.0
aF1.0
aF1.0
aF1.0
aF1.0
aF1.0
aF1.0
aF1.0
aF1.0
aF1.0
aF1.0
aF1.0
aF1.0
aF1.0
aF1.0
aF1.0
aF1.0
aF1.0
aF1.0
aF1.0
aF1.0
aF1.0
aF1.0
aF1.0
aF1.0
aF1.0
aF1.0
aF1.0
aF1.0
aF1.0
aF1.0
aF1.0
aF1.0
aF1.0
aF1.0
aF1.0
aF1.0
aF1.0
aF1.0
aF1.0
aF1.0
aF1.0
aF1.0
aF1.0
aF1.0
aF1.0
aF1.0
aF1.0
asg54
(lp131
F0.0
aF0.0
aF0.0
aF0.0
aF0.001
aF0.0080000000000000002
aF0.028000000000000001
aF0.044999999999999998
aF0.043999999999999997
aF0.044999999999999998
aF0.047
aF0.041000000000000002
aF0.042999999999999997
aF0.049000000000000002
aF0.042999999999999997
aF0.053999999999999999
aF0.058999999999999997
aF0.041000000000000002
aF0.034000000000000002
aF0.037999999999999999
aF0.053999999999999999
aF0.065000000000000002
aF0.056000000000000001
aF0.051999999999999998
aF0.044999999999999998
aF0.047
aF0.051999999999999998
aF0.049000000000000002
aF0.057000000000000002
aF0.062
aF0.062
aF0.052999999999999999
aF0.058000000000000003
aF0.068000000000000005
aF0.055
aF0.047
aF0.047
aF0.058999999999999997
aF0.058999999999999997
aF0.050999999999999997
aF0.058000000000000003
aF0.056000000000000001
aF0.057000000000000002
aF0.058999999999999997
aF0.055
aF0.059999999999999998
aF0.051999999999999998
aF0.055
aF0.056000000000000001
aF0.060999999999999999
aF0.072999999999999995
aF0.068000000000000005
aF0.066000000000000003
aF0.058999999999999997
aF0.070999999999999994
aF0.068000000000000005
aF0.073999999999999996
aF0.070999999999999994
aF0.056000000000000001
aF0.051999999999999998
aF0.055
aF0.058999999999999997
aF0.059999999999999998
aF0.060999999999999999
aF0.073999999999999996
aF0.070000000000000007
aF0.075999999999999998
aF0.070000000000000007
aF0.070000000000000007
aF0.063
aF0.062
aF0.060999999999999999
aF0.076999999999999999
aF0.070999999999999994
aF0.068000000000000005
aF0.058000000000000003
aF0.070000000000000007
aF0.070000000000000007
aF0.063
aF0.063
aF0.066000000000000003
aF0.074999999999999997
aF0.057000000000000002
aF0.050999999999999997
aF0.053999999999999999
aF0.057000000000000002
aF0.069000000000000006
aF0.070999999999999994
aF0.065000000000000002
aF0.065000000000000002
aF0.069000000000000006
aF0.069000000000000006
aF0.066000000000000003
aF0.067000000000000004
aF0.067000000000000004
aF0.055
aF0.070000000000000007
aF0.056000000000000001
aF0.048000000000000001
aF0.049000000000000002
aF0.059999999999999998
asg56
(lp132
F0.0
aF0.0
aF0.0
aF0.0
aF0.002
aF0.010999999999999999
aF0.021000000000000001
aF0.032000000000000001
aF0.029999999999999999
aF0.031
aF0.025999999999999999
aF0.035000000000000003
aF0.036999999999999998
aF0.035999999999999997
aF0.040000000000000001
aF0.029999999999999999
aF0.032000000000000001
aF0.031
aF0.025000000000000001
aF0.025000000000000001
aF0.036999999999999998
aF0.040000000000000001
aF0.033000000000000002
aF0.033000000000000002
aF0.039
aF0.036999999999999998
aF0.035000000000000003
aF0.036999999999999998
aF0.035000000000000003
aF0.035999999999999997
aF0.037999999999999999
aF0.041000000000000002
aF0.043999999999999997
aF0.048000000000000001
aF0.050000000000000003
aF0.039
aF0.040000000000000001
aF0.036999999999999998
aF0.050999999999999997
aF0.039
aF0.047
aF0.042999999999999997
aF0.035000000000000003
aF0.035999999999999997
aF0.042000000000000003
aF0.039
aF0.040000000000000001
aF0.039
aF0.036999999999999998
aF0.045999999999999999
aF0.050000000000000003
aF0.041000000000000002
aF0.049000000000000002
aF0.051999999999999998
aF0.048000000000000001
aF0.055
aF0.047
aF0.041000000000000002
aF0.041000000000000002
aF0.035999999999999997
aF0.037999999999999999
aF0.047
aF0.049000000000000002
aF0.045999999999999999
aF0.050999999999999997
aF0.057000000000000002
aF0.051999999999999998
aF0.053999999999999999
aF0.050000000000000003
aF0.042000000000000003
aF0.050000000000000003
aF0.049000000000000002
aF0.052999999999999999
aF0.049000000000000002
aF0.042999999999999997
aF0.045999999999999999
aF0.047
aF0.049000000000000002
aF0.047
aF0.052999999999999999
aF0.051999999999999998
aF0.042999999999999997
aF0.047
aF0.041000000000000002
aF0.048000000000000001
aF0.041000000000000002
aF0.043999999999999997
aF0.051999999999999998
aF0.051999999999999998
aF0.050999999999999997
aF0.047
aF0.052999999999999999
aF0.044999999999999998
aF0.041000000000000002
aF0.051999999999999998
aF0.044999999999999998
aF0.049000000000000002
aF0.036999999999999998
aF0.037999999999999999
aF0.036999999999999998
aF0.050000000000000003
asg58
(lp133
F0.0
aF0.0
aF0.002
aF0.014999999999999999
aF0.078
aF0.128
aF0.122
aF0.115
aF0.11799999999999999
aF0.11700000000000001
aF0.122
aF0.13500000000000001
aF0.14199999999999999
aF0.151
aF0.154
aF0.122
aF0.11
aF0.114
aF0.158
aF0.159
aF0.152
aF0.14000000000000001
aF0.127
aF0.121
aF0.124
aF0.13400000000000001
aF0.13700000000000001
aF0.152
aF0.14999999999999999
aF0.156
aF0.16900000000000001
aF0.17199999999999999
aF0.14399999999999999
aF0.14000000000000001
aF0.13100000000000001
aF0.14499999999999999
aF0.14899999999999999
aF0.157
aF0.153
aF0.153
aF0.17100000000000001
aF0.17000000000000001
aF0.16500000000000001
aF0.14899999999999999
aF0.14899999999999999
aF0.17000000000000001
aF0.16
aF0.17000000000000001
aF0.17999999999999999
aF0.17000000000000001
aF0.16400000000000001
aF0.153
aF0.16
aF0.159
aF0.17599999999999999
aF0.17100000000000001
aF0.158
aF0.14299999999999999
aF0.14699999999999999
aF0.16300000000000001
aF0.17699999999999999
aF0.17000000000000001
aF0.16500000000000001
aF0.16700000000000001
aF0.17599999999999999
aF0.155
aF0.157
aF0.16400000000000001
aF0.157
aF0.16600000000000001
aF0.17299999999999999
aF0.159
aF0.17299999999999999
aF0.16200000000000001
aF0.153
aF0.16700000000000001
aF0.17299999999999999
aF0.17100000000000001
aF0.161
aF0.16300000000000001
aF0.16500000000000001
aF0.17499999999999999
aF0.16300000000000001
aF0.158
aF0.16400000000000001
aF0.17000000000000001
aF0.186
aF0.187
aF0.158
aF0.156
aF0.14899999999999999
aF0.16800000000000001
aF0.17399999999999999
aF0.158
aF0.14399999999999999
aF0.14399999999999999
aF0.14499999999999999
aF0.155
aF0.152
aF0.16900000000000001
aF0.17499999999999999
asg60
(lp134
F0.0
aF0.0
aF0.0030000000000000001
aF0.049000000000000002
aF0.13
aF0.159
aF0.128
aF0.13900000000000001
aF0.14699999999999999
aF0.13200000000000001
aF0.115
aF0.129
aF0.104
aF0.104
aF0.083000000000000004
aF0.086999999999999994
aF0.068000000000000005
aF0.073999999999999996
aF0.085000000000000006
aF0.076999999999999999
aF0.069000000000000006
aF0.058000000000000003
aF0.055
aF0.064000000000000001
aF0.055
aF0.051999999999999998
aF0.045999999999999999
aF0.039
aF0.049000000000000002
aF0.042999999999999997
aF0.048000000000000001
aF0.036999999999999998
aF0.029999999999999999
aF0.041000000000000002
aF0.034000000000000002
aF0.031
aF0.035999999999999997
aF0.029000000000000001
aF0.037999999999999999
aF0.014999999999999999
aF0.02
aF0.02
aF0.017000000000000001
aF0.019
aF0.017000000000000001
aF0.016
aF0.01
aF0.019
aF0.016
aF0.016
aF0.01
aF0.010999999999999999
aF0.0080000000000000002
aF0.0080000000000000002
aF0.016
aF0.0089999999999999993
aF0.0080000000000000002
aF0.0060000000000000001
aF0.01
aF0.010999999999999999
aF0.01
aF0.0060000000000000001
aF0.014
aF0.0070000000000000001
aF0.01
aF0.0089999999999999993
aF0.0070000000000000001
aF0.0030000000000000001
aF0.0060000000000000001
aF0.0080000000000000002
aF0.0060000000000000001
aF0.0050000000000000001
aF0.0030000000000000001
aF0.0060000000000000001
aF0.0070000000000000001
aF0.0080000000000000002
aF0.0060000000000000001
aF0.0050000000000000001
aF0.002
aF0.0050000000000000001
aF0.0040000000000000001
aF0.0050000000000000001
aF0.0030000000000000001
aF0.002
aF0.0040000000000000001
aF0.0040000000000000001
aF0.0030000000000000001
aF0.002
aF0.0030000000000000001
aF0.002
aF0.002
aF0.0030000000000000001
aF0.001
aF0.0030000000000000001
aF0.0030000000000000001
aF0.0030000000000000001
aF0.001
aF0.001
aF0.001
aF0.001
aF0.0
asg62
(lp135
F1.0
aF1.0
aF1.0
aF0.996
aF0.98099999999999998
aF0.93200000000000005
aF0.88
aF0.878
aF0.88500000000000001
aF0.879
aF0.872
aF0.88300000000000001
aF0.872
aF0.86699999999999999
aF0.85899999999999999
aF0.85699999999999998
aF0.876
aF0.89300000000000002
aF0.879
aF0.85199999999999998
aF0.84799999999999998
aF0.84699999999999998
aF0.85999999999999999
aF0.871
aF0.88200000000000001
aF0.88100000000000001
aF0.872
aF0.86799999999999999
aF0.85899999999999999
aF0.85799999999999998
aF0.85599999999999998
aF0.83599999999999997
aF0.82699999999999996
aF0.83699999999999997
aF0.85799999999999998
aF0.873
aF0.86399999999999999
aF0.85599999999999998
aF0.83899999999999997
aF0.84299999999999997
aF0.83799999999999997
aF0.84199999999999997
aF0.83199999999999996
aF0.82999999999999996
aF0.86299999999999999
aF0.85699999999999998
aF0.83599999999999997
aF0.84199999999999997
aF0.83399999999999996
aF0.83599999999999997
aF0.82799999999999996
aF0.83599999999999997
aF0.82799999999999996
aF0.83099999999999996
aF0.83799999999999997
aF0.83199999999999996
aF0.83899999999999997
aF0.83299999999999996
aF0.85599999999999998
aF0.85699999999999998
aF0.84199999999999997
aF0.82599999999999996
aF0.82799999999999996
aF0.84399999999999997
aF0.83899999999999997
aF0.82999999999999996
aF0.83799999999999997
aF0.85199999999999998
aF0.84099999999999997
aF0.83899999999999997
aF0.83299999999999996
aF0.81699999999999995
aF0.83799999999999997
aF0.83599999999999997
aF0.84199999999999997
aF0.84899999999999998
aF0.83399999999999996
aF0.82599999999999996
aF0.82999999999999996
aF0.81899999999999995
aF0.83699999999999997
aF0.83499999999999996
aF0.82799999999999996
aF0.83299999999999996
aF0.83699999999999997
aF0.83999999999999997
aF0.83099999999999996
aF0.81000000000000005
aF0.81699999999999995
aF0.82699999999999996
aF0.83799999999999997
aF0.84399999999999997
aF0.84099999999999997
aF0.82799999999999996
aF0.84399999999999997
aF0.84499999999999997
aF0.85099999999999998
aF0.84599999999999997
aF0.84599999999999997
aF0.83599999999999997
aF0.82299999999999995
asg64
(lp136
F1.0
aF0.0
aF0.0
aF0.0
aF0.001
aF0.0050000000000000001
aF0.010999999999999999
aF0.010999999999999999
aF0.012999999999999999
aF0.02
aF0.017999999999999999
aF0.014
aF0.010999999999999999
aF0.017999999999999999
aF0.024
aF0.024
aF0.023
aF0.014999999999999999
aF0.017999999999999999
aF0.014
aF0.014999999999999999
aF0.017999999999999999
aF0.021000000000000001
aF0.019
aF0.017999999999999999
aF0.012999999999999999
aF0.012
aF0.021000000000000001
aF0.024
aF0.023
aF0.014999999999999999
aF0.019
aF0.023
aF0.014999999999999999
aF0.023
aF0.014999999999999999
aF0.017999999999999999
aF0.021000000000000001
aF0.028000000000000001
aF0.023
aF0.021999999999999999
aF0.021000000000000001
aF0.023
aF0.025999999999999999
aF0.02
aF0.019
aF0.017000000000000001
aF0.019
aF0.017000000000000001
aF0.025999999999999999
aF0.029999999999999999
aF0.024
aF0.019
aF0.014999999999999999
aF0.019
aF0.028000000000000001
aF0.028000000000000001
aF0.029000000000000001
aF0.017999999999999999
aF0.016
aF0.021000000000000001
aF0.027
aF0.029000000000000001
aF0.02
aF0.031
aF0.021000000000000001
aF0.029000000000000001
aF0.025000000000000001
aF0.029000000000000001
aF0.02
aF0.017999999999999999
aF0.029000000000000001
aF0.025000000000000001
aF0.025000000000000001
aF0.021999999999999999
aF0.025000000000000001
aF0.025000000000000001
aF0.027
aF0.024
aF0.019
aF0.029000000000000001
aF0.027
aF0.025000000000000001
aF0.019
aF0.016
aF0.025000000000000001
aF0.025000000000000001
aF0.029999999999999999
aF0.023
aF0.023
aF0.02
aF0.025000000000000001
aF0.024
aF0.021000000000000001
aF0.014999999999999999
aF0.025000000000000001
aF0.028000000000000001
aF0.02
aF0.023
aF0.017999999999999999
aF0.025000000000000001
asg66
(lp137
F0.0
aF0.0
aF0.0
aF0.010999999999999999
aF0.042000000000000003
aF0.10100000000000001
aF0.13500000000000001
aF0.11899999999999999
aF0.115
aF0.11600000000000001
aF0.11700000000000001
aF0.11799999999999999
aF0.13900000000000001
aF0.14699999999999999
aF0.155
aF0.14499999999999999
aF0.11
aF0.109
aF0.13
aF0.159
aF0.159
aF0.151
aF0.13400000000000001
aF0.11700000000000001
aF0.11600000000000001
aF0.129
aF0.14299999999999999
aF0.13900000000000001
aF0.14299999999999999
aF0.14599999999999999
aF0.154
aF0.17499999999999999
aF0.16400000000000001
aF0.14399999999999999
aF0.14099999999999999
aF0.13
aF0.152
aF0.14799999999999999
aF0.153
aF0.158
aF0.16300000000000001
aF0.16800000000000001
aF0.16700000000000001
aF0.16500000000000001
aF0.14699999999999999
aF0.16500000000000001
aF0.157
aF0.17399999999999999
aF0.16800000000000001
aF0.17699999999999999
aF0.17399999999999999
aF0.16400000000000001
aF0.16400000000000001
aF0.16700000000000001
aF0.16600000000000001
aF0.17100000000000001
aF0.16800000000000001
aF0.14899999999999999
aF0.14699999999999999
aF0.159
aF0.16300000000000001
aF0.17199999999999999
aF0.16600000000000001
aF0.16800000000000001
aF0.16200000000000001
aF0.16700000000000001
aF0.158
aF0.16600000000000001
aF0.158
aF0.159
aF0.16400000000000001
aF0.16700000000000001
aF0.16400000000000001
aF0.17100000000000001
aF0.157
aF0.16300000000000001
aF0.157
aF0.17000000000000001
aF0.16900000000000001
aF0.16400000000000001
aF0.16400000000000001
aF0.16800000000000001
aF0.17000000000000001
aF0.158
aF0.14999999999999999
aF0.16500000000000001
aF0.17899999999999999
aF0.187
aF0.18099999999999999
aF0.16500000000000001
aF0.14599999999999999
aF0.156
aF0.16900000000000001
aF0.16
aF0.14799999999999999
aF0.14799999999999999
aF0.14599999999999999
aF0.14399999999999999
aF0.14399999999999999
aF0.16400000000000001
aF0.184
asg68
(lp138
F1.0
aF0.0
aF0.0
aF0.0
aF0.0040000000000000001
aF0.012999999999999999
aF0.029999999999999999
aF0.050000000000000003
aF0.048000000000000001
aF0.047
aF0.043999999999999997
aF0.045999999999999999
aF0.055
aF0.055
aF0.059999999999999998
aF0.058999999999999997
aF0.060999999999999999
aF0.053999999999999999
aF0.048000000000000001
aF0.047
aF0.056000000000000001
aF0.072999999999999995
aF0.056000000000000001
aF0.055
aF0.060999999999999999
aF0.049000000000000002
aF0.050000000000000003
aF0.062
aF0.057000000000000002
aF0.059999999999999998
aF0.058000000000000003
aF0.056000000000000001
aF0.062
aF0.076999999999999999
aF0.070000000000000007
aF0.062
aF0.060999999999999999
aF0.058999999999999997
aF0.070000000000000007
aF0.069000000000000006
aF0.070000000000000007
aF0.064000000000000001
aF0.065000000000000002
aF0.065000000000000002
aF0.066000000000000003
aF0.064000000000000001
aF0.065000000000000002
aF0.053999999999999999
aF0.063
aF0.069000000000000006
aF0.069000000000000006
aF0.076999999999999999
aF0.070000000000000007
aF0.069000000000000006
aF0.072999999999999995
aF0.075999999999999998
aF0.076999999999999999
aF0.074999999999999997
aF0.070000000000000007
aF0.063
aF0.068000000000000005
aF0.067000000000000004
aF0.069000000000000006
aF0.073999999999999996
aF0.078
aF0.078
aF0.083000000000000004
aF0.085999999999999993
aF0.070999999999999994
aF0.070999999999999994
aF0.078
aF0.080000000000000002
aF0.080000000000000002
aF0.073999999999999996
aF0.072999999999999995
aF0.068000000000000005
aF0.067000000000000004
aF0.081000000000000003
aF0.075999999999999998
aF0.074999999999999997
aF0.078
aF0.076999999999999999
aF0.070000000000000007
aF0.069000000000000006
aF0.068000000000000005
aF0.066000000000000003
aF0.076999999999999999
aF0.082000000000000003
aF0.086999999999999994
aF0.076999999999999999
aF0.073999999999999996
aF0.080000000000000002
aF0.078
aF0.070999999999999994
aF0.075999999999999998
aF0.076999999999999999
aF0.087999999999999995
aF0.072999999999999995
aF0.062
aF0.066000000000000003
aF0.069000000000000006
asg70
(lp139
F0.0
aF0.0030000000000000001
aF0.045999999999999999
aF0.191
aF0.245
aF0.20799999999999999
aF0.221
aF0.216
aF0.22800000000000001
aF0.23400000000000001
aF0.22600000000000001
aF0.23499999999999999
aF0.222
aF0.214
aF0.21199999999999999
aF0.20200000000000001
aF0.193
aF0.23400000000000001
aF0.21099999999999999
aF0.20100000000000001
aF0.20399999999999999
aF0.214
aF0.193
aF0.20899999999999999
aF0.217
aF0.219
aF0.21199999999999999
aF0.20499999999999999
aF0.224
aF0.22900000000000001
aF0.22
aF0.21299999999999999
aF0.20399999999999999
aF0.19800000000000001
aF0.20300000000000001
aF0.20499999999999999
aF0.219
aF0.214
aF0.215
aF0.21199999999999999
aF0.20000000000000001
aF0.17999999999999999
aF0.18099999999999999
aF0.192
aF0.218
aF0.20599999999999999
aF0.20899999999999999
aF0.20100000000000001
aF0.20100000000000001
aF0.19600000000000001
aF0.20699999999999999
aF0.20799999999999999
aF0.17999999999999999
aF0.185
aF0.188
aF0.20000000000000001
aF0.19600000000000001
aF0.19700000000000001
aF0.215
aF0.21299999999999999
aF0.20999999999999999
aF0.189
aF0.191
aF0.20399999999999999
aF0.189
aF0.19900000000000001
aF0.21099999999999999
aF0.20899999999999999
aF0.20000000000000001
aF0.20699999999999999
aF0.19600000000000001
aF0.20100000000000001
aF0.20899999999999999
aF0.20499999999999999
aF0.193
aF0.19
aF0.20599999999999999
aF0.20599999999999999
aF0.184
aF0.20100000000000001
aF0.19800000000000001
aF0.19500000000000001
aF0.19400000000000001
aF0.191
aF0.19
aF0.19500000000000001
aF0.20399999999999999
aF0.19400000000000001
aF0.16700000000000001
aF0.19600000000000001
aF0.20300000000000001
aF0.222
aF0.20399999999999999
aF0.182
aF0.185
aF0.191
aF0.20499999999999999
aF0.187
aF0.19600000000000001
aF0.19700000000000001
aF0.19700000000000001
asg72
(lp140
F0.0
aF0.0
aF0.0
aF0.0
aF0.0089999999999999993
aF0.035999999999999997
aF0.088999999999999996
aF0.14599999999999999
aF0.182
aF0.22500000000000001
aF0.25900000000000001
aF0.29199999999999998
aF0.33600000000000002
aF0.374
aF0.41599999999999998
aF0.44800000000000001
aF0.47699999999999998
aF0.49099999999999999
aF0.51000000000000001
aF0.54800000000000004
aF0.56799999999999995
aF0.58499999999999996
aF0.61199999999999999
aF0.629
aF0.64800000000000002
aF0.66200000000000003
aF0.67300000000000004
aF0.68400000000000005
aF0.69699999999999995
aF0.70899999999999996
aF0.73199999999999998
aF0.746
aF0.76000000000000001
aF0.76600000000000001
aF0.78100000000000003
aF0.79200000000000004
aF0.80500000000000005
aF0.81799999999999995
aF0.83399999999999996
aF0.84299999999999997
aF0.85199999999999998
aF0.85599999999999998
aF0.86699999999999999
aF0.873
aF0.878
aF0.88400000000000001
aF0.89100000000000001
aF0.89400000000000002
aF0.90100000000000002
aF0.91000000000000003
aF0.91600000000000004
aF0.91800000000000004
aF0.92300000000000004
aF0.92500000000000004
aF0.93100000000000005
aF0.93200000000000005
aF0.93600000000000005
aF0.93799999999999994
aF0.94199999999999995
aF0.94199999999999995
aF0.94399999999999995
aF0.94699999999999995
aF0.95099999999999996
aF0.95199999999999996
aF0.95399999999999996
aF0.95699999999999996
aF0.95899999999999996
aF0.95999999999999996
aF0.96299999999999997
aF0.96399999999999997
aF0.96499999999999997
aF0.96699999999999997
aF0.96699999999999997
aF0.96899999999999997
aF0.96999999999999997
aF0.96999999999999997
aF0.96999999999999997
aF0.97299999999999998
aF0.97399999999999998
aF0.97499999999999998
aF0.97499999999999998
aF0.97599999999999998
aF0.97699999999999998
aF0.97899999999999998
aF0.97899999999999998
aF0.97899999999999998
aF0.98099999999999998
aF0.98199999999999998
aF0.98399999999999999
aF0.98699999999999999
aF0.98699999999999999
aF0.98699999999999999
aF0.98799999999999999
aF0.98799999999999999
aF0.98799999999999999
aF0.98799999999999999
aF0.98899999999999999
aF0.98899999999999999
aF0.98899999999999999
aF0.98899999999999999
aF0.98899999999999999
asg74
(lp141
F0.0
aF0.0
aF0.001
aF0.002
aF0.0070000000000000001
aF0.035000000000000003
aF0.078
aF0.087999999999999995
aF0.083000000000000004
aF0.081000000000000003
aF0.089999999999999997
aF0.091999999999999998
aF0.10100000000000001
aF0.108
aF0.122
aF0.11700000000000001
aF0.104
aF0.091999999999999998
aF0.10199999999999999
aF0.11700000000000001
aF0.14000000000000001
aF0.14599999999999999
aF0.121
aF0.11700000000000001
aF0.107
aF0.111
aF0.11
aF0.124
aF0.129
aF0.123
aF0.13500000000000001
aF0.157
aF0.155
aF0.14199999999999999
aF0.13100000000000001
aF0.124
aF0.127
aF0.13800000000000001
aF0.14499999999999999
aF0.14799999999999999
aF0.155
aF0.152
aF0.152
aF0.161
aF0.14099999999999999
aF0.14099999999999999
aF0.157
aF0.154
aF0.158
aF0.16200000000000001
aF0.16700000000000001
aF0.161
aF0.16200000000000001
aF0.16900000000000001
aF0.16400000000000001
aF0.16
aF0.16500000000000001
aF0.16500000000000001
aF0.14599999999999999
aF0.14799999999999999
aF0.158
aF0.17399999999999999
aF0.17199999999999999
aF0.16500000000000001
aF0.16300000000000001
aF0.17299999999999999
aF0.153
aF0.14499999999999999
aF0.16400000000000001
aF0.153
aF0.16600000000000001
aF0.17299999999999999
aF0.17199999999999999
aF0.158
aF0.158
aF0.16400000000000001
aF0.16600000000000001
aF0.17699999999999999
aF0.17999999999999999
aF0.17599999999999999
aF0.16200000000000001
aF0.16500000000000001
aF0.16600000000000001
aF0.16
aF0.16
aF0.16
aF0.16500000000000001
aF0.188
aF0.18099999999999999
aF0.16200000000000001
aF0.157
aF0.154
aF0.154
aF0.17299999999999999
aF0.16200000000000001
aF0.14799999999999999
aF0.14299999999999999
aF0.16300000000000001
aF0.157
aF0.16200000000000001
aF0.17299999999999999
asg76
(lp142
F0.0
aF0.0
aF0.0
aF0.001
aF0.0060000000000000001
aF0.02
aF0.041000000000000002
aF0.052999999999999999
aF0.049000000000000002
aF0.043999999999999997
aF0.043999999999999997
aF0.056000000000000001
aF0.055
aF0.050999999999999997
aF0.057000000000000002
aF0.065000000000000002
aF0.051999999999999998
aF0.051999999999999998
aF0.047
aF0.050000000000000003
aF0.059999999999999998
aF0.063
aF0.063
aF0.059999999999999998
aF0.058999999999999997
aF0.048000000000000001
aF0.058000000000000003
aF0.059999999999999998
aF0.060999999999999999
aF0.053999999999999999
aF0.063
aF0.066000000000000003
aF0.067000000000000004
aF0.074999999999999997
aF0.063
aF0.062
aF0.058000000000000003
aF0.068000000000000005
aF0.069000000000000006
aF0.074999999999999997
aF0.070000000000000007
aF0.060999999999999999
aF0.064000000000000001
aF0.064000000000000001
aF0.066000000000000003
aF0.063
aF0.063
aF0.058000000000000003
aF0.067000000000000004
aF0.067000000000000004
aF0.075999999999999998
aF0.073999999999999996
aF0.066000000000000003
aF0.070999999999999994
aF0.071999999999999995
aF0.080000000000000002
aF0.078
aF0.071999999999999995
aF0.066000000000000003
aF0.056000000000000001
aF0.066000000000000003
aF0.070999999999999994
aF0.071999999999999995
aF0.076999999999999999
aF0.072999999999999995
aF0.079000000000000001
aF0.085000000000000006
aF0.084000000000000005
aF0.066000000000000003
aF0.067000000000000004
aF0.073999999999999996
aF0.082000000000000003
aF0.076999999999999999
aF0.074999999999999997
aF0.070999999999999994
aF0.064000000000000001
aF0.078
aF0.079000000000000001
aF0.072999999999999995
aF0.074999999999999997
aF0.078
aF0.069000000000000006
aF0.059999999999999998
aF0.071999999999999995
aF0.062
aF0.070999999999999994
aF0.078
aF0.083000000000000004
aF0.079000000000000001
aF0.081000000000000003
aF0.081000000000000003
aF0.072999999999999995
aF0.069000000000000006
aF0.080000000000000002
aF0.075999999999999998
aF0.082000000000000003
aF0.071999999999999995
aF0.064000000000000001
aF0.060999999999999999
aF0.069000000000000006
aF0.081000000000000003
asg78
(lp143
F0.0
aF0.0
aF0.0
aF0.0
aF0.0
aF0.0
aF0.0
aF0.0
aF0.0
aF0.0
aF0.0
aF0.0
aF0.0
aF0.0
aF0.0
aF0.0
aF0.0
aF0.0
aF0.0
aF0.0
aF0.0
aF0.0
aF0.0
aF0.0
aF0.0
aF0.0
aF0.0
aF0.0
aF0.0
aF0.0
aF0.0
aF0.0
aF0.0
aF0.0
aF0.0
aF0.0
aF0.0
aF0.0
aF0.0
aF0.0
aF0.0
aF0.0
aF0.0
aF0.0
aF0.0
aF0.0
aF0.0
aF0.0
aF0.0
aF0.0
aF0.0
aF0.0
aF0.0
aF0.0
aF0.0
aF0.0
aF0.0
aF0.0
aF0.0
aF0.0
aF0.0
aF0.0
aF0.0
aF0.0
aF0.0
aF0.0
aF0.0
aF0.0
aF0.0
aF0.0
aF0.0
aF0.0
aF0.0
aF0.0
aF0.0
aF0.0
aF0.0
aF0.0
aF0.0
aF0.0
aF0.0
aF0.0
aF0.0
aF0.0
aF0.0
aF0.0
aF0.0
aF0.0
aF0.0
aF0.0
aF0.0
aF0.0
aF0.0
aF0.0
aF0.0
aF0.0
aF0.0
aF0.0
aF0.0
aF0.0
aF0.0
asg80
(lp144
F0.0
aF0.0
aF0.0
aF0.0
aF0.0
aF0.0
aF0.0
aF0.0
aF0.0
aF0.0
aF0.0
aF0.0
aF0.0
aF0.0
aF0.0
aF0.0
aF0.0
aF0.0
aF0.0
aF0.0
aF0.0
aF0.0
aF0.0
aF0.0
aF0.0
aF0.0
aF0.0
aF0.0
aF0.0
aF0.0
aF0.0
aF0.0
aF0.0
aF0.0
aF0.0
aF0.0
aF0.0
aF0.0
aF0.0
aF0.0
aF0.0
aF0.0
aF0.0
aF0.0
aF0.0
aF0.0
aF0.0
aF0.0
aF0.0
aF0.0
aF0.0
aF0.0
aF0.0
aF0.0
aF0.0
aF0.0
aF0.0
aF0.0
aF0.0
aF0.0
aF0.0
aF0.0
aF0.0
aF0.0
aF0.0
aF0.0
aF0.0
aF0.0
aF0.0
aF0.0
aF0.0
aF0.0
aF0.0
aF0.0
aF0.0
aF0.0
aF0.0
aF0.0
aF0.0
aF0.0
aF0.0
aF0.0
aF0.0
aF0.0
aF0.0
aF0.0
aF0.0
aF0.0
aF0.0
aF0.0
aF0.0
aF0.0
aF0.0
aF0.0
aF0.0
aF0.0
aF0.0
aF0.0
aF0.0
aF0.0
aF0.0
asg82
(lp145
F0.0
aF0.014
aF0.12
aF0.25600000000000001
aF0.218
aF0.224
aF0.247
aF0.23699999999999999
aF0.28699999999999998
aF0.26200000000000001
aF0.28000000000000003
aF0.27100000000000002
aF0.25800000000000001
aF0.25700000000000001
aF0.254
aF0.23899999999999999
aF0.26800000000000002
aF0.27700000000000002
aF0.253
aF0.247
aF0.27300000000000002
aF0.26100000000000001
aF0.25
aF0.26700000000000002
aF0.254
aF0.28399999999999997
aF0.26300000000000001
aF0.27200000000000002
aF0.28399999999999997
aF0.27900000000000003
aF0.28000000000000003
aF0.26300000000000001
aF0.27200000000000002
aF0.26000000000000001
aF0.253
aF0.27000000000000002
aF0.26800000000000002
aF0.26700000000000002
aF0.26400000000000001
aF0.25900000000000001
aF0.25
aF0.24299999999999999
aF0.253
aF0.27000000000000002
aF0.255
aF0.26600000000000001
aF0.27100000000000002
aF0.26900000000000002
aF0.26800000000000002
aF0.26300000000000001
aF0.28799999999999998
aF0.27400000000000002
aF0.26100000000000001
aF0.25900000000000001
aF0.26500000000000001
aF0.27600000000000002
aF0.26700000000000002
aF0.26600000000000001
aF0.27200000000000002
aF0.27100000000000002
aF0.26200000000000001
aF0.251
aF0.28000000000000003
aF0.27900000000000003
aF0.26300000000000001
aF0.28699999999999998
aF0.30299999999999999
aF0.27700000000000002
aF0.28199999999999997
aF0.26900000000000002
aF0.27800000000000002
aF0.27200000000000002
aF0.28799999999999998
aF0.27700000000000002
aF0.28399999999999997
aF0.26700000000000002
aF0.27700000000000002
aF0.26100000000000001
aF0.27800000000000002
aF0.27600000000000002
aF0.26900000000000002
aF0.27100000000000002
aF0.26500000000000001
aF0.26400000000000001
aF0.26000000000000001
aF0.27200000000000002
aF0.28499999999999998
aF0.26300000000000001
aF0.27000000000000002
aF0.27000000000000002
aF0.29999999999999999
aF0.29799999999999999
aF0.27700000000000002
aF0.255
aF0.27000000000000002
aF0.27500000000000002
aF0.25600000000000001
aF0.25900000000000001
aF0.27500000000000002
aF0.25
aF0.26900000000000002
asg84
(lp146
F0.0
aF0.0
aF0.0
aF0.0
aF0.002
aF0.0040000000000000001
aF0.016
aF0.025999999999999999
aF0.034000000000000002
aF0.029999999999999999
aF0.028000000000000001
aF0.033000000000000002
aF0.035000000000000003
aF0.035000000000000003
aF0.034000000000000002
aF0.036999999999999998
aF0.032000000000000001
aF0.035999999999999997
aF0.029999999999999999
aF0.023
aF0.025000000000000001
aF0.040000000000000001
aF0.036999999999999998
aF0.041000000000000002
aF0.035999999999999997
aF0.035000000000000003
aF0.034000000000000002
aF0.036999999999999998
aF0.035000000000000003
aF0.035000000000000003
aF0.037999999999999999
aF0.036999999999999998
aF0.040000000000000001
aF0.050999999999999997
aF0.050000000000000003
aF0.036999999999999998
aF0.036999999999999998
aF0.035999999999999997
aF0.036999999999999998
aF0.042999999999999997
aF0.040000000000000001
aF0.042000000000000003
aF0.043999999999999997
aF0.029000000000000001
aF0.040000000000000001
aF0.037999999999999999
aF0.037999999999999999
aF0.042999999999999997
aF0.040000000000000001
aF0.039
aF0.047
aF0.044999999999999998
aF0.043999999999999997
aF0.044999999999999998
aF0.045999999999999999
aF0.050999999999999997
aF0.052999999999999999
aF0.044999999999999998
aF0.042999999999999997
aF0.042999999999999997
aF0.040000000000000001
aF0.042000000000000003
aF0.050999999999999997
aF0.045999999999999999
aF0.042000000000000003
aF0.053999999999999999
aF0.060999999999999999
aF0.055
aF0.048000000000000001
aF0.048000000000000001
aF0.050000000000000003
aF0.048000000000000001
aF0.050000000000000003
aF0.048000000000000001
aF0.042000000000000003
aF0.042999999999999997
aF0.045999999999999999
aF0.043999999999999997
aF0.045999999999999999
aF0.050000000000000003
aF0.049000000000000002
aF0.042999999999999997
aF0.042000000000000003
aF0.042000000000000003
aF0.037999999999999999
aF0.041000000000000002
aF0.050000000000000003
aF0.043999999999999997
aF0.050999999999999997
aF0.056000000000000001
aF0.050999999999999997
aF0.050000000000000003
aF0.049000000000000002
aF0.047
aF0.047
aF0.049000000000000002
aF0.048000000000000001
aF0.035999999999999997
aF0.037999999999999999
aF0.040000000000000001
aF0.042000000000000003
asg86
(lp147
F0.0
aF0.13500000000000001
aF0.34000000000000002
aF0.13600000000000001
aF0.19500000000000001
aF0.249
aF0.21199999999999999
aF0.248
aF0.23100000000000001
aF0.23300000000000001
aF0.224
aF0.22700000000000001
aF0.215
aF0.21299999999999999
aF0.22500000000000001
aF0.218
aF0.222
aF0.193
aF0.22600000000000001
aF0.23000000000000001
aF0.20799999999999999
aF0.19800000000000001
aF0.20599999999999999
aF0.23000000000000001
aF0.224
aF0.23699999999999999
aF0.22800000000000001
aF0.24099999999999999
aF0.21199999999999999
aF0.23799999999999999
aF0.24199999999999999
aF0.22900000000000001
aF0.217
aF0.20000000000000001
aF0.22500000000000001
aF0.22900000000000001
aF0.23300000000000001
aF0.221
aF0.22
aF0.20799999999999999
aF0.22800000000000001
aF0.21199999999999999
aF0.23499999999999999
aF0.20999999999999999
aF0.215
aF0.24199999999999999
aF0.23300000000000001
aF0.219
aF0.21199999999999999
aF0.23499999999999999
aF0.221
aF0.215
aF0.224
aF0.22900000000000001
aF0.22
aF0.22600000000000001
aF0.22700000000000001
aF0.218
aF0.20699999999999999
aF0.222
aF0.24199999999999999
aF0.23300000000000001
aF0.218
aF0.22600000000000001
aF0.246
aF0.23699999999999999
aF0.23300000000000001
aF0.23599999999999999
aF0.23100000000000001
aF0.20999999999999999
aF0.23799999999999999
aF0.22900000000000001
aF0.219
aF0.249
aF0.222
aF0.219
aF0.22900000000000001
aF0.21199999999999999
aF0.23100000000000001
aF0.23999999999999999
aF0.222
aF0.20599999999999999
aF0.23599999999999999
aF0.219
aF0.222
aF0.23300000000000001
aF0.22
aF0.216
aF0.23400000000000001
aF0.23200000000000001
aF0.22800000000000001
aF0.24299999999999999
aF0.20499999999999999
aF0.23200000000000001
aF0.219
aF0.20599999999999999
aF0.21299999999999999
aF0.23400000000000001
aF0.21199999999999999
aF0.21199999999999999
aF0.20000000000000001
asg88
(lp148
F0.0
aF0.002
aF0.057000000000000002
aF0.19400000000000001
aF0.20499999999999999
aF0.13800000000000001
aF0.14699999999999999
aF0.156
aF0.16200000000000001
aF0.16200000000000001
aF0.186
aF0.17599999999999999
aF0.183
aF0.17799999999999999
aF0.152
aF0.157
aF0.16500000000000001
aF0.19900000000000001
aF0.183
aF0.16800000000000001
aF0.17499999999999999
aF0.17199999999999999
aF0.161
aF0.158
aF0.18099999999999999
aF0.17000000000000001
aF0.19800000000000001
aF0.182
aF0.18099999999999999
aF0.193
aF0.191
aF0.21099999999999999
aF0.20799999999999999
aF0.17599999999999999
aF0.17499999999999999
aF0.19700000000000001
aF0.183
aF0.182
aF0.17599999999999999
aF0.21299999999999999
aF0.17799999999999999
aF0.17399999999999999
aF0.185
aF0.19900000000000001
aF0.20100000000000001
aF0.191
aF0.20000000000000001
aF0.20000000000000001
aF0.21099999999999999
aF0.17799999999999999
aF0.19600000000000001
aF0.19
aF0.19400000000000001
aF0.19800000000000001
aF0.191
aF0.183
aF0.17899999999999999
aF0.20200000000000001
aF0.20499999999999999
aF0.20100000000000001
aF0.19800000000000001
aF0.20499999999999999
aF0.20999999999999999
aF0.19400000000000001
aF0.19600000000000001
aF0.184
aF0.21199999999999999
aF0.20499999999999999
aF0.21299999999999999
aF0.21199999999999999
aF0.187
aF0.20699999999999999
aF0.20000000000000001
aF0.185
aF0.193
aF0.20200000000000001
aF0.19900000000000001
aF0.186
aF0.20699999999999999
aF0.19500000000000001
aF0.184
aF0.17599999999999999
aF0.184
aF0.20200000000000001
aF0.20799999999999999
aF0.20300000000000001
aF0.187
aF0.185
aF0.19900000000000001
aF0.18099999999999999
aF0.19400000000000001
aF0.218
aF0.187
aF0.19400000000000001
aF0.19700000000000001
aF0.17699999999999999
aF0.184
aF0.185
aF0.20999999999999999
aF0.20899999999999999
aF0.20599999999999999
asg90
(lp149
F0.0
aF0.0
aF0.0
aF0.0040000000000000001
aF0.042999999999999997
aF0.094
aF0.106
aF0.085999999999999993
aF0.075999999999999998
aF0.087999999999999995
aF0.085000000000000006
aF0.070999999999999994
aF0.097000000000000003
aF0.10199999999999999
aF0.104
aF0.080000000000000002
aF0.073999999999999996
aF0.069000000000000006
aF0.098000000000000004
aF0.121
aF0.106
aF0.089999999999999997
aF0.090999999999999998
aF0.085000000000000006
aF0.085000000000000006
aF0.10299999999999999
aF0.095000000000000001
aF0.097000000000000003
aF0.10100000000000001
aF0.105
aF0.105
aF0.113
aF0.104
aF0.096000000000000002
aF0.091999999999999998
aF0.092999999999999999
aF0.087999999999999995
aF0.106
aF0.10199999999999999
aF0.114
aF0.114
aF0.107
aF0.095000000000000001
aF0.085999999999999993
aF0.10000000000000001
aF0.115
aF0.099000000000000005
aF0.122
aF0.10299999999999999
aF0.104
aF0.104
aF0.10299999999999999
aF0.107
aF0.11
aF0.089999999999999997
aF0.108
aF0.081000000000000003
aF0.086999999999999994
aF0.099000000000000005
aF0.108
aF0.10299999999999999
aF0.104
aF0.105
aF0.104
aF0.10100000000000001
aF0.10000000000000001
aF0.092999999999999999
aF0.10199999999999999
aF0.107
aF0.095000000000000001
aF0.115
aF0.11899999999999999
aF0.10000000000000001
aF0.112
aF0.10000000000000001
aF0.097000000000000003
aF0.091999999999999998
aF0.10199999999999999
aF0.10100000000000001
aF0.097000000000000003
aF0.111
aF0.113
aF0.097000000000000003
aF0.088999999999999996
aF0.106
aF0.109
aF0.10299999999999999
aF0.106
aF0.105
aF0.099000000000000005
aF0.089999999999999997
aF0.10199999999999999
aF0.113
aF0.107
aF0.099000000000000005
aF0.090999999999999998
aF0.112
aF0.108
aF0.092999999999999999
aF0.104
aF0.111
asg92
(lp150
F0.0
aF0.0
aF0.0
aF0.0
aF0.0
aF0.0
aF0.0
aF0.0
aF0.0
aF0.0
aF0.0
aF0.0
aF0.0
aF0.0
aF0.0
aF0.0
aF0.0
aF0.0
aF0.0
aF0.0
aF0.0
aF0.0
aF0.0
aF0.0
aF0.0
aF0.0
aF0.0
aF0.0
aF0.0
aF0.0
aF0.0
aF0.0
aF0.0
aF0.0
aF0.0
aF0.0
aF0.0
aF0.0
aF0.0
aF0.0
aF0.0
aF0.0
aF0.0
aF0.0
aF0.0
aF0.0
aF0.0
aF0.0
aF0.0
aF0.0
aF0.0
aF0.0
aF0.0
aF0.0
aF0.0
aF0.0
aF0.0
aF0.0
aF0.0
aF0.0
aF0.0
aF0.0
aF0.0
aF0.0
aF0.0
aF0.0
aF0.0
aF0.0
aF0.0
aF0.0
aF0.0
aF0.0
aF0.0
aF0.0
aF0.0
aF0.0
aF0.0
aF0.0
aF0.0
aF0.0
aF0.0
aF0.0
aF0.0
aF0.0
aF0.0
aF0.0
aF0.0
aF0.0
aF0.0
aF0.0
aF0.0
aF0.0
aF0.0
aF0.0
aF0.0
aF0.0
aF0.0
aF0.0
aF0.0
aF0.0
aF0.0
asg94
(lp151
F0.0
aF0.0
aF0.0040000000000000001
aF0.042999999999999997
aF0.125
aF0.10199999999999999
aF0.075999999999999998
aF0.089999999999999997
aF0.078
aF0.079000000000000001
aF0.091999999999999998
aF0.097000000000000003
aF0.10299999999999999
aF0.105
aF0.081000000000000003
aF0.072999999999999995
aF0.065000000000000002
aF0.107
aF0.125
aF0.098000000000000004
aF0.089999999999999997
aF0.091999999999999998
aF0.086999999999999994
aF0.083000000000000004
aF0.089999999999999997
aF0.085000000000000006
aF0.097000000000000003
aF0.104
aF0.098000000000000004
aF0.11799999999999999
aF0.114
aF0.097000000000000003
aF0.099000000000000005
aF0.095000000000000001
aF0.087999999999999995
aF0.086999999999999994
aF0.096000000000000002
aF0.111
aF0.106
aF0.11
aF0.11799999999999999
aF0.087999999999999995
aF0.078
aF0.10299999999999999
aF0.115
aF0.108
aF0.112
aF0.109
aF0.10299999999999999
aF0.107
aF0.089999999999999997
aF0.105
aF0.096000000000000002
aF0.10199999999999999
aF0.107
aF0.099000000000000005
aF0.086999999999999994
aF0.10100000000000001
aF0.111
aF0.113
aF0.11
aF0.097000000000000003
aF0.112
aF0.104
aF0.105
aF0.097000000000000003
aF0.104
aF0.114
aF0.095000000000000001
aF0.115
aF0.115
aF0.105
aF0.10000000000000001
aF0.10000000000000001
aF0.108
aF0.10000000000000001
aF0.10100000000000001
aF0.10299999999999999
aF0.098000000000000004
aF0.10199999999999999
aF0.108
aF0.095000000000000001
aF0.096000000000000002
aF0.109
aF0.104
aF0.111
aF0.106
aF0.11700000000000001
aF0.10000000000000001
aF0.096000000000000002
aF0.099000000000000005
aF0.106
aF0.108
aF0.099000000000000005
aF0.094
aF0.097000000000000003
aF0.10199999999999999
aF0.10199999999999999
aF0.096000000000000002
aF0.11
aF0.108
asg96
(lp152
F0.0
aF0.0
aF0.0
aF0.0
aF0.002
aF0.01
aF0.0080000000000000002
aF0.014
aF0.0080000000000000002
aF0.016
aF0.012999999999999999
aF0.0089999999999999993
aF0.012
aF0.010999999999999999
aF0.012
aF0.012999999999999999
aF0.010999999999999999
aF0.0060000000000000001
aF0.02
aF0.014
aF0.014999999999999999
aF0.017999999999999999
aF0.012
aF0.0070000000000000001
aF0.017000000000000001
aF0.017000000000000001
aF0.016
aF0.012999999999999999
aF0.01
aF0.014999999999999999
aF0.012999999999999999
aF0.014
aF0.024
aF0.010999999999999999
aF0.010999999999999999
aF0.016
aF0.016
aF0.017000000000000001
aF0.0089999999999999993
aF0.012
aF0.021999999999999999
aF0.017000000000000001
aF0.016
aF0.014
aF0.017999999999999999
aF0.017999999999999999
aF0.019
aF0.017000000000000001
aF0.02
aF0.019
aF0.02
aF0.0089999999999999993
aF0.014
aF0.016
aF0.017999999999999999
aF0.019
aF0.021999999999999999
aF0.014999999999999999
aF0.010999999999999999
aF0.021999999999999999
aF0.0089999999999999993
aF0.017999999999999999
aF0.012999999999999999
aF0.017999999999999999
aF0.017999999999999999
aF0.012999999999999999
aF0.012
aF0.010999999999999999
aF0.017999999999999999
aF0.012
aF0.014
aF0.021000000000000001
aF0.012999999999999999
aF0.02
aF0.019
aF0.016
aF0.021999999999999999
aF0.02
aF0.021000000000000001
aF0.017000000000000001
aF0.024
aF0.012
aF0.012999999999999999
aF0.014
aF0.012999999999999999
aF0.019
aF0.019
aF0.024
aF0.019
aF0.014999999999999999
aF0.014
aF0.017999999999999999
aF0.014
aF0.017999999999999999
aF0.010999999999999999
aF0.014
aF0.017000000000000001
aF0.017999999999999999
aF0.014999999999999999
aF0.014999999999999999
aF0.012
asg98
(lp153
F0.0
aF0.0
aF0.0
aF0.0
aF0.0030000000000000001
aF0.014
aF0.029000000000000001
aF0.045999999999999999
aF0.050000000000000003
aF0.050999999999999997
aF0.040000000000000001
aF0.051999999999999998
aF0.055
aF0.056000000000000001
aF0.051999999999999998
aF0.065000000000000002
aF0.059999999999999998
aF0.051999999999999998
aF0.050999999999999997
aF0.053999999999999999
aF0.055
aF0.062
aF0.059999999999999998
aF0.058999999999999997
aF0.060999999999999999
aF0.055
aF0.050000000000000003
aF0.057000000000000002
aF0.064000000000000001
aF0.065000000000000002
aF0.055
aF0.060999999999999999
aF0.063
aF0.073999999999999996
aF0.069000000000000006
aF0.058000000000000003
aF0.062
aF0.066000000000000003
aF0.067000000000000004
aF0.065000000000000002
aF0.070999999999999994
aF0.065000000000000002
aF0.066000000000000003
aF0.062
aF0.066000000000000003
aF0.060999999999999999
aF0.060999999999999999
aF0.066000000000000003
aF0.057000000000000002
aF0.068000000000000005
aF0.074999999999999997
aF0.072999999999999995
aF0.070000000000000007
aF0.075999999999999998
aF0.071999999999999995
aF0.076999999999999999
aF0.072999999999999995
aF0.073999999999999996
aF0.071999999999999995
aF0.065000000000000002
aF0.067000000000000004
aF0.069000000000000006
aF0.069000000000000006
aF0.072999999999999995
aF0.071999999999999995
aF0.081000000000000003
aF0.078
aF0.083000000000000004
aF0.072999999999999995
aF0.067000000000000004
aF0.073999999999999996
aF0.076999999999999999
aF0.081000000000000003
aF0.075999999999999998
aF0.075999999999999998
aF0.062
aF0.073999999999999996
aF0.083000000000000004
aF0.066000000000000003
aF0.072999999999999995
aF0.080000000000000002
aF0.072999999999999995
aF0.068000000000000005
aF0.060999999999999999
aF0.069000000000000006
aF0.063
aF0.076999999999999999
aF0.072999999999999995
aF0.081000000000000003
aF0.074999999999999997
aF0.085000000000000006
aF0.071999999999999995
aF0.078
aF0.075999999999999998
aF0.076999999999999999
aF0.071999999999999995
aF0.082000000000000003
aF0.068000000000000005
aF0.060999999999999999
aF0.055
aF0.068000000000000005
asg100
(lp154
F0.0
aF0.36599999999999999
aF0.20999999999999999
aF0.111
aF0.28999999999999998
aF0.191
aF0.22700000000000001
aF0.23400000000000001
aF0.20999999999999999
aF0.223
aF0.23000000000000001
aF0.19400000000000001
aF0.23400000000000001
aF0.20100000000000001
aF0.22700000000000001
aF0.20699999999999999
aF0.214
aF0.20799999999999999
aF0.24199999999999999
aF0.215
aF0.192
aF0.21099999999999999
aF0.22600000000000001
aF0.222
aF0.24399999999999999
aF0.22600000000000001
aF0.23899999999999999
aF0.20399999999999999
aF0.22700000000000001
aF0.249
aF0.23100000000000001
aF0.222
aF0.221
aF0.221
aF0.219
aF0.22900000000000001
aF0.217
aF0.24199999999999999
aF0.22600000000000001
aF0.20399999999999999
aF0.222
aF0.224
aF0.22800000000000001
aF0.19900000000000001
aF0.224
aF0.24099999999999999
aF0.20100000000000001
aF0.22900000000000001
aF0.222
aF0.23200000000000001
aF0.20300000000000001
aF0.22500000000000001
aF0.23400000000000001
aF0.22800000000000001
aF0.23200000000000001
aF0.22700000000000001
aF0.219
aF0.217
aF0.19600000000000001
aF0.24299999999999999
aF0.24399999999999999
aF0.215
aF0.22500000000000001
aF0.22500000000000001
aF0.25
aF0.23699999999999999
aF0.20999999999999999
aF0.23100000000000001
aF0.20899999999999999
aF0.22900000000000001
aF0.23899999999999999
aF0.214
aF0.23300000000000001
aF0.23799999999999999
aF0.214
aF0.23400000000000001
aF0.221
aF0.23799999999999999
aF0.22
aF0.23300000000000001
aF0.22500000000000001
aF0.219
aF0.23400000000000001
aF0.19900000000000001
aF0.24399999999999999
aF0.23300000000000001
aF0.23799999999999999
aF0.23899999999999999
aF0.23499999999999999
aF0.22600000000000001
aF0.25
aF0.216
aF0.219
aF0.22500000000000001
aF0.215
aF0.21199999999999999
aF0.22900000000000001
aF0.21099999999999999
aF0.23100000000000001
aF0.20399999999999999
aF0.22700000000000001
asg102
(lp155
F1.0
aF1.0
aF1.0
aF1.0
aF1.0
aF1.0
aF1.0
aF1.0
aF1.0
aF1.0
aF1.0
aF1.0
aF1.0
aF1.0
aF1.0
aF1.0
aF1.0
aF1.0
aF1.0
aF1.0
aF1.0
aF1.0
aF1.0
aF1.0
aF1.0
aF1.0
aF1.0
aF1.0
aF1.0
aF1.0
aF1.0
aF1.0
aF1.0
aF1.0
aF1.0
aF1.0
aF1.0
aF1.0
aF1.0
aF1.0
aF1.0
aF1.0
aF1.0
aF1.0
aF1.0
aF1.0
aF1.0
aF1.0
aF1.0
aF1.0
aF1.0
aF1.0
aF1.0
aF1.0
aF1.0
aF1.0
aF1.0
aF1.0
aF1.0
aF1.0
aF1.0
aF1.0
aF1.0
aF1.0
aF1.0
aF1.0
aF1.0
aF1.0
aF1.0
aF1.0
aF1.0
aF1.0
aF1.0
aF1.0
aF1.0
aF1.0
aF1.0
aF1.0
aF1.0
aF1.0
aF1.0
aF1.0
aF1.0
aF1.0
aF1.0
aF1.0
aF1.0
aF1.0
aF1.0
aF1.0
aF1.0
aF1.0
aF1.0
aF1.0
aF1.0
aF1.0
aF1.0
aF1.0
aF1.0
aF1.0
aF1.0
asa.